ARM GAS  /var/folders/ck/4xtm3skj1ssb0w4rn7_4q_gw0000gn/T//cctheIXO.s 			page 1


   1              		.syntax unified
   2              		.cpu cortex-m4
   3              		.eabi_attribute 27, 1
   4              		.eabi_attribute 28, 1
   5              		.fpu fpv4-sp-d16
   6              		.eabi_attribute 20, 1
   7              		.eabi_attribute 21, 1
   8              		.eabi_attribute 23, 3
   9              		.eabi_attribute 24, 1
  10              		.eabi_attribute 25, 1
  11              		.eabi_attribute 26, 1
  12              		.eabi_attribute 30, 6
  13              		.eabi_attribute 34, 1
  14              		.eabi_attribute 18, 4
  15              		.thumb
  16              		.file	"filter.c"
  17              		.text
  18              	.Ltext0:
  19              		.cfi_sections	.debug_frame
  20              		.global	__aeabi_i2d
  21              		.global	__aeabi_ddiv
  22              		.global	__aeabi_dmul
  23              		.global	__aeabi_dadd
  24              		.global	__aeabi_dsub
  25              		.section	.text.goertzel,"ax",%progbits
  26              		.align	2
  27              		.global	goertzel
  28              		.thumb
  29              		.thumb_func
  31              	goertzel:
  32              	.LFB0:
  33              		.file 1 "Src/filter.c"
   1:Src/filter.c  **** #include "assert.h"
   2:Src/filter.c  **** #include "stdio.h"
   3:Src/filter.c  **** #include "stdlib.h"
   4:Src/filter.c  **** #include "math.h"
   5:Src/filter.c  **** 
   6:Src/filter.c  **** #include "filter.h"
   7:Src/filter.c  **** #include "circular_buffer.h"
   8:Src/filter.c  **** 
   9:Src/filter.c  **** #define PI 3.141592653589793
  10:Src/filter.c  **** 
  11:Src/filter.c  **** #define BANDWITH 200
  12:Src/filter.c  **** #define NUM_FREQS 2
  13:Src/filter.c  **** 
  14:Src/filter.c  **** /*
  15:Src/filter.c  **** return the goertzel algorithm evaluation for the given inputs
  16:Src/filter.c  **** - x is an array of samples
  17:Src/filter.c  **** - sample_rate is the sample rate at which x was taken
  18:Src/filter.c  **** - freqs is an array of pairs of lower and upper bounds for frequencies
  19:Src/filter.c  ****     - example: freqs = [400, 500, 1000, 1100] would mean that we are looking at 2 bands of frequenc
  20:Src/filter.c  ****     - by it's nature, freqs must have an even number of inputs
  21:Src/filter.c  ****     - BANDWITHS MUST BE THE SAME FOR EACH FREQ PAIR
  22:Src/filter.c  ****         - TODO: Generalize for variable bandwiths
  23:Src/filter.c  **** - results must be 'results[num_freqs / 2][size_of_bin]'
  24:Src/filter.c  **** 
  25:Src/filter.c  **** TODO:
ARM GAS  /var/folders/ck/4xtm3skj1ssb0w4rn7_4q_gw0000gn/T//cctheIXO.s 			page 2


  26:Src/filter.c  ****     - optimize w/ pointers
  27:Src/filter.c  ****     - optimize for use in other files
  28:Src/filter.c  **** */
  29:Src/filter.c  **** 
  30:Src/filter.c  **** double goertzel(int *x, int sample_rate, int freq, int window_size)
  31:Src/filter.c  **** {
  34              		.loc 1 31 0
  35              		.cfi_startproc
  36              		@ args = 0, pretend = 0, frame = 88
  37              		@ frame_needed = 1, uses_anonymous_args = 0
  38 0000 B0B5     		push	{r4, r5, r7, lr}
  39              	.LCFI0:
  40              		.cfi_def_cfa_offset 16
  41              		.cfi_offset 4, -16
  42              		.cfi_offset 5, -12
  43              		.cfi_offset 7, -8
  44              		.cfi_offset 14, -4
  45 0002 96B0     		sub	sp, sp, #88
  46              	.LCFI1:
  47              		.cfi_def_cfa_offset 104
  48 0004 00AF     		add	r7, sp, #0
  49              	.LCFI2:
  50              		.cfi_def_cfa_register 7
  51 0006 F860     		str	r0, [r7, #12]
  52 0008 B960     		str	r1, [r7, #8]
  53 000a 7A60     		str	r2, [r7, #4]
  54 000c 3B60     		str	r3, [r7]
  32:Src/filter.c  ****     // Set up initial parameters
  33:Src/filter.c  ****     double f_step = sample_rate / (double)window_size;
  55              		.loc 1 33 0
  56 000e B868     		ldr	r0, [r7, #8]
  57 0010 FFF7FEFF 		bl	__aeabi_i2d
  58 0014 0446     		mov	r4, r0
  59 0016 0D46     		mov	r5, r1
  60 0018 3868     		ldr	r0, [r7]
  61 001a FFF7FEFF 		bl	__aeabi_i2d
  62 001e 0246     		mov	r2, r0
  63 0020 0B46     		mov	r3, r1
  64 0022 2046     		mov	r0, r4
  65 0024 2946     		mov	r1, r5
  66 0026 FFF7FEFF 		bl	__aeabi_ddiv
  67 002a 0246     		mov	r2, r0
  68 002c 0B46     		mov	r3, r1
  69 002e C7E90E23 		strd	r2, [r7, #56]
  34:Src/filter.c  ****     double f_step_normalized = 1.0 / window_size;
  70              		.loc 1 34 0
  71 0032 3868     		ldr	r0, [r7]
  72 0034 FFF7FEFF 		bl	__aeabi_i2d
  73 0038 0246     		mov	r2, r0
  74 003a 0B46     		mov	r3, r1
  75 003c 4FF00000 		mov	r0, #0
  76 0040 5F49     		ldr	r1, .L5+8
  77 0042 FFF7FEFF 		bl	__aeabi_ddiv
  78 0046 0246     		mov	r2, r0
  79 0048 0B46     		mov	r3, r1
  80 004a C7E90C23 		strd	r2, [r7, #48]
  35:Src/filter.c  **** 
ARM GAS  /var/folders/ck/4xtm3skj1ssb0w4rn7_4q_gw0000gn/T//cctheIXO.s 			page 3


  36:Src/filter.c  ****     double k = freq / f_step;
  81              		.loc 1 36 0
  82 004e 7868     		ldr	r0, [r7, #4]
  83 0050 FFF7FEFF 		bl	__aeabi_i2d
  84 0054 0246     		mov	r2, r0
  85 0056 0B46     		mov	r3, r1
  86 0058 1046     		mov	r0, r2
  87 005a 1946     		mov	r1, r3
  88 005c D7E90E23 		ldrd	r2, [r7, #56]
  89 0060 FFF7FEFF 		bl	__aeabi_ddiv
  90 0064 0246     		mov	r2, r0
  91 0066 0B46     		mov	r3, r1
  92 0068 C7E90A23 		strd	r2, [r7, #40]
  37:Src/filter.c  **** 
  38:Src/filter.c  ****     // number of frequencies is the same size as the number of
  39:Src/filter.c  ****     // upper and lower bin limits; loop through bin limits (i.e.
  40:Src/filter.c  ****     // k_start and k_end pairs, and evaluate goertzel from there)
  41:Src/filter.c  ****     double normalizedfreq, w_real;
  42:Src/filter.c  **** 
  43:Src/filter.c  ****     normalizedfreq = k * f_step_normalized;
  93              		.loc 1 43 0
  94 006c D7E90A01 		ldrd	r0, [r7, #40]
  95 0070 D7E90C23 		ldrd	r2, [r7, #48]
  96 0074 FFF7FEFF 		bl	__aeabi_dmul
  97 0078 0246     		mov	r2, r0
  98 007a 0B46     		mov	r3, r1
  99 007c C7E90823 		strd	r2, [r7, #32]
  44:Src/filter.c  ****     w_real = 2.0 * cos(2.0 * PI * normalizedfreq);
 100              		.loc 1 44 0
 101 0080 D7E90801 		ldrd	r0, [r7, #32]
 102 0084 4CA3     		adr	r3, .L5
 103 0086 D3E90023 		ldrd	r2, [r3]
 104 008a FFF7FEFF 		bl	__aeabi_dmul
 105 008e 0246     		mov	r2, r0
 106 0090 0B46     		mov	r3, r1
 107 0092 43EC172B 		fmdrr	d7, r2, r3
 108 0096 B0EE470A 		fcpys	s0, s14
 109 009a F0EE670A 		fcpys	s1, s15
 110 009e FFF7FEFF 		bl	cos
 111 00a2 53EC102B 		fmrrd	r2, r3, d0
 112 00a6 1046     		mov	r0, r2
 113 00a8 1946     		mov	r1, r3
 114 00aa FFF7FEFF 		bl	__aeabi_dadd
 115 00ae 0246     		mov	r2, r0
 116 00b0 0B46     		mov	r3, r1
 117 00b2 C7E90623 		strd	r2, [r7, #24]
  45:Src/filter.c  ****     double d1 = 0, d2 = 0, y = 0;
 118              		.loc 1 45 0
 119 00b6 4FF00002 		mov	r2, #0
 120 00ba 4FF00003 		mov	r3, #0
 121 00be C7E91423 		strd	r2, [r7, #80]
 122 00c2 4FF00002 		mov	r2, #0
 123 00c6 4FF00003 		mov	r3, #0
 124 00ca C7E91223 		strd	r2, [r7, #72]
 125 00ce 4FF00002 		mov	r2, #0
 126 00d2 4FF00003 		mov	r3, #0
 127 00d6 C7E90423 		strd	r2, [r7, #16]
ARM GAS  /var/folders/ck/4xtm3skj1ssb0w4rn7_4q_gw0000gn/T//cctheIXO.s 			page 4


  46:Src/filter.c  ****     int n = 0;
 128              		.loc 1 46 0
 129 00da 0023     		movs	r3, #0
 130 00dc 7B64     		str	r3, [r7, #68]
  47:Src/filter.c  ****     while (n < window_size)
 131              		.loc 1 47 0
 132 00de 2CE0     		b	.L2
 133              	.L3:
  48:Src/filter.c  ****     {
  49:Src/filter.c  ****         y = x[n] + w_real * d1 - d2;
 134              		.loc 1 49 0
 135 00e0 7B6C     		ldr	r3, [r7, #68]
 136 00e2 9B00     		lsls	r3, r3, #2
 137 00e4 FA68     		ldr	r2, [r7, #12]
 138 00e6 1344     		add	r3, r3, r2
 139 00e8 1B68     		ldr	r3, [r3]
 140 00ea 1846     		mov	r0, r3
 141 00ec FFF7FEFF 		bl	__aeabi_i2d
 142 00f0 0446     		mov	r4, r0
 143 00f2 0D46     		mov	r5, r1
 144 00f4 D7E90601 		ldrd	r0, [r7, #24]
 145 00f8 D7E91423 		ldrd	r2, [r7, #80]
 146 00fc FFF7FEFF 		bl	__aeabi_dmul
 147 0100 0246     		mov	r2, r0
 148 0102 0B46     		mov	r3, r1
 149 0104 2046     		mov	r0, r4
 150 0106 2946     		mov	r1, r5
 151 0108 FFF7FEFF 		bl	__aeabi_dadd
 152 010c 0246     		mov	r2, r0
 153 010e 0B46     		mov	r3, r1
 154 0110 1046     		mov	r0, r2
 155 0112 1946     		mov	r1, r3
 156 0114 D7E91223 		ldrd	r2, [r7, #72]
 157 0118 FFF7FEFF 		bl	__aeabi_dsub
 158 011c 0246     		mov	r2, r0
 159 011e 0B46     		mov	r3, r1
 160 0120 C7E90423 		strd	r2, [r7, #16]
  50:Src/filter.c  ****         d2 = d1;
 161              		.loc 1 50 0
 162 0124 D7E91423 		ldrd	r2, [r7, #80]
 163 0128 C7E91223 		strd	r2, [r7, #72]
  51:Src/filter.c  ****         d1 = y;
 164              		.loc 1 51 0
 165 012c D7E90423 		ldrd	r2, [r7, #16]
 166 0130 C7E91423 		strd	r2, [r7, #80]
  52:Src/filter.c  ****         n++;
 167              		.loc 1 52 0
 168 0134 7B6C     		ldr	r3, [r7, #68]
 169 0136 0133     		adds	r3, r3, #1
 170 0138 7B64     		str	r3, [r7, #68]
 171              	.L2:
  47:Src/filter.c  ****     {
 172              		.loc 1 47 0
 173 013a 7A6C     		ldr	r2, [r7, #68]
 174 013c 3B68     		ldr	r3, [r7]
 175 013e 9A42     		cmp	r2, r3
 176 0140 CEDB     		blt	.L3
ARM GAS  /var/folders/ck/4xtm3skj1ssb0w4rn7_4q_gw0000gn/T//cctheIXO.s 			page 5


  53:Src/filter.c  ****     }
  54:Src/filter.c  **** 
  55:Src/filter.c  ****     // Calculate power, and put it in its results spot
  56:Src/filter.c  ****     return d2 * d2 + d1 * d1 - w_real * d1 * d2;
 177              		.loc 1 56 0
 178 0142 D7E91201 		ldrd	r0, [r7, #72]
 179 0146 D7E91223 		ldrd	r2, [r7, #72]
 180 014a FFF7FEFF 		bl	__aeabi_dmul
 181 014e 0246     		mov	r2, r0
 182 0150 0B46     		mov	r3, r1
 183 0152 1446     		mov	r4, r2
 184 0154 1D46     		mov	r5, r3
 185 0156 D7E91401 		ldrd	r0, [r7, #80]
 186 015a D7E91423 		ldrd	r2, [r7, #80]
 187 015e FFF7FEFF 		bl	__aeabi_dmul
 188 0162 0246     		mov	r2, r0
 189 0164 0B46     		mov	r3, r1
 190 0166 2046     		mov	r0, r4
 191 0168 2946     		mov	r1, r5
 192 016a FFF7FEFF 		bl	__aeabi_dadd
 193 016e 0246     		mov	r2, r0
 194 0170 0B46     		mov	r3, r1
 195 0172 1446     		mov	r4, r2
 196 0174 1D46     		mov	r5, r3
 197 0176 D7E90601 		ldrd	r0, [r7, #24]
 198 017a D7E91423 		ldrd	r2, [r7, #80]
 199 017e FFF7FEFF 		bl	__aeabi_dmul
 200 0182 0246     		mov	r2, r0
 201 0184 0B46     		mov	r3, r1
 202 0186 1046     		mov	r0, r2
 203 0188 1946     		mov	r1, r3
 204 018a D7E91223 		ldrd	r2, [r7, #72]
 205 018e FFF7FEFF 		bl	__aeabi_dmul
 206 0192 0246     		mov	r2, r0
 207 0194 0B46     		mov	r3, r1
 208 0196 2046     		mov	r0, r4
 209 0198 2946     		mov	r1, r5
 210 019a FFF7FEFF 		bl	__aeabi_dsub
 211 019e 0246     		mov	r2, r0
 212 01a0 0B46     		mov	r3, r1
 213 01a2 43EC172B 		fmdrr	d7, r2, r3
  57:Src/filter.c  **** }
 214              		.loc 1 57 0
 215 01a6 B0EE470A 		fcpys	s0, s14
 216 01aa F0EE670A 		fcpys	s1, s15
 217 01ae 5837     		adds	r7, r7, #88
 218              	.LCFI3:
 219              		.cfi_def_cfa_offset 16
 220 01b0 BD46     		mov	sp, r7
 221              	.LCFI4:
 222              		.cfi_def_cfa_register 13
 223              		@ sp needed
 224 01b2 B0BD     		pop	{r4, r5, r7, pc}
 225              	.L6:
 226 01b4 AFF30080 		.align	3
 227              	.L5:
 228 01b8 182D4454 		.word	1413754136
ARM GAS  /var/folders/ck/4xtm3skj1ssb0w4rn7_4q_gw0000gn/T//cctheIXO.s 			page 6


 229 01bc FB211940 		.word	1075388923
 230 01c0 0000F03F 		.word	1072693248
 231              		.cfi_endproc
 232              	.LFE0:
 234              		.section	.rodata
 235              		.align	2
 236              	.LC0:
 237 0000 6E756D5F 		.ascii	"num_els: %lu, \000"
 237      656C733A 
 237      20256C75 
 237      2C2000
 238 000f 00       		.align	2
 239              	.LC1:
 240 0010 256600   		.ascii	"%f\000"
 241              		.section	.text.circular_goertzel_stream,"ax",%progbits
 242              		.align	2
 243              		.global	circular_goertzel_stream
 244              		.thumb
 245              		.thumb_func
 247              	circular_goertzel_stream:
 248              	.LFB1:
  58:Src/filter.c  **** 
  59:Src/filter.c  **** double circular_goertzel_stream(double x, int freq, int sample_rate, int window_size)
  60:Src/filter.c  **** {
 249              		.loc 1 60 0
 250              		.cfi_startproc
 251              		@ args = 0, pretend = 0, frame = 72
 252              		@ frame_needed = 1, uses_anonymous_args = 0
 253 0000 B0B5     		push	{r4, r5, r7, lr}
 254              	.LCFI5:
 255              		.cfi_def_cfa_offset 16
 256              		.cfi_offset 4, -16
 257              		.cfi_offset 5, -12
 258              		.cfi_offset 7, -8
 259              		.cfi_offset 14, -4
 260 0002 92B0     		sub	sp, sp, #72
 261              	.LCFI6:
 262              		.cfi_def_cfa_offset 88
 263 0004 00AF     		add	r7, sp, #0
 264              	.LCFI7:
 265              		.cfi_def_cfa_register 7
 266 0006 87ED040B 		fstd	d0, [r7, #16]
 267 000a F860     		str	r0, [r7, #12]
 268 000c B960     		str	r1, [r7, #8]
 269 000e 7A60     		str	r2, [r7, #4]
  61:Src/filter.c  ****     // Set up and initialize circular_buffer
  62:Src/filter.c  ****     static int initialized = 0;
  63:Src/filter.c  ****     static circ_bufsum_t cbuf;
  64:Src/filter.c  ****     if (!initialized)
 270              		.loc 1 64 0
 271 0010 854B     		ldr	r3, .L10+8
 272 0012 1B68     		ldr	r3, [r3]
 273 0014 002B     		cmp	r3, #0
 274 0016 07D1     		bne	.L8
  65:Src/filter.c  ****     {
  66:Src/filter.c  ****         circ_bufsum_init(&cbuf, window_size);
 275              		.loc 1 66 0
ARM GAS  /var/folders/ck/4xtm3skj1ssb0w4rn7_4q_gw0000gn/T//cctheIXO.s 			page 7


 276 0018 8448     		ldr	r0, .L10+12
 277 001a 7968     		ldr	r1, [r7, #4]
 278 001c FFF7FEFF 		bl	circ_bufsum_init
  67:Src/filter.c  ****         initialized = - 1;
 279              		.loc 1 67 0
 280 0020 814B     		ldr	r3, .L10+8
 281 0022 4FF0FF32 		mov	r2, #-1
 282 0026 1A60     		str	r2, [r3]
 283              	.L8:
  68:Src/filter.c  ****     }
  69:Src/filter.c  **** 
  70:Src/filter.c  ****     // Set up initial parameters
  71:Src/filter.c  ****     double f_step = sample_rate / (double)window_size;
 284              		.loc 1 71 0
 285 0028 B868     		ldr	r0, [r7, #8]
 286 002a FFF7FEFF 		bl	__aeabi_i2d
 287 002e 0446     		mov	r4, r0
 288 0030 0D46     		mov	r5, r1
 289 0032 7868     		ldr	r0, [r7, #4]
 290 0034 FFF7FEFF 		bl	__aeabi_i2d
 291 0038 0246     		mov	r2, r0
 292 003a 0B46     		mov	r3, r1
 293 003c 2046     		mov	r0, r4
 294 003e 2946     		mov	r1, r5
 295 0040 FFF7FEFF 		bl	__aeabi_ddiv
 296 0044 0246     		mov	r2, r0
 297 0046 0B46     		mov	r3, r1
 298 0048 C7E91023 		strd	r2, [r7, #64]
  72:Src/filter.c  ****     double f_step_normalized = 1.0 / window_size;
 299              		.loc 1 72 0
 300 004c 7868     		ldr	r0, [r7, #4]
 301 004e FFF7FEFF 		bl	__aeabi_i2d
 302 0052 0246     		mov	r2, r0
 303 0054 0B46     		mov	r3, r1
 304 0056 4FF00000 		mov	r0, #0
 305 005a 7549     		ldr	r1, .L10+16
 306 005c FFF7FEFF 		bl	__aeabi_ddiv
 307 0060 0246     		mov	r2, r0
 308 0062 0B46     		mov	r3, r1
 309 0064 C7E90E23 		strd	r2, [r7, #56]
  73:Src/filter.c  **** 
  74:Src/filter.c  ****     // Calculate freq bin (for calc of frequency)
  75:Src/filter.c  ****     double k = freq / f_step;
 310              		.loc 1 75 0
 311 0068 F868     		ldr	r0, [r7, #12]
 312 006a FFF7FEFF 		bl	__aeabi_i2d
 313 006e 0246     		mov	r2, r0
 314 0070 0B46     		mov	r3, r1
 315 0072 1046     		mov	r0, r2
 316 0074 1946     		mov	r1, r3
 317 0076 D7E91023 		ldrd	r2, [r7, #64]
 318 007a FFF7FEFF 		bl	__aeabi_ddiv
 319 007e 0246     		mov	r2, r0
 320 0080 0B46     		mov	r3, r1
 321 0082 C7E90C23 		strd	r2, [r7, #48]
  76:Src/filter.c  **** 
  77:Src/filter.c  ****     // Get rid of for loop of num_freqs,etc
ARM GAS  /var/folders/ck/4xtm3skj1ssb0w4rn7_4q_gw0000gn/T//cctheIXO.s 			page 8


  78:Src/filter.c  ****     // Bin frequency and coefficients for computation
  79:Src/filter.c  ****     // TODO: MAKE STATIC? i.e. w_real is constant across t
  80:Src/filter.c  ****     //       for one frequency!
  81:Src/filter.c  ****     double normalizedfreq, w_real;
  82:Src/filter.c  ****     normalizedfreq = k * f_step_normalized;
 322              		.loc 1 82 0
 323 0086 D7E90C01 		ldrd	r0, [r7, #48]
 324 008a D7E90E23 		ldrd	r2, [r7, #56]
 325 008e FFF7FEFF 		bl	__aeabi_dmul
 326 0092 0246     		mov	r2, r0
 327 0094 0B46     		mov	r3, r1
 328 0096 C7E90A23 		strd	r2, [r7, #40]
  83:Src/filter.c  ****     w_real = 2.0 * cos(2.0 * PI * normalizedfreq);
 329              		.loc 1 83 0
 330 009a D7E90A01 		ldrd	r0, [r7, #40]
 331 009e 60A3     		adr	r3, .L10
 332 00a0 D3E90023 		ldrd	r2, [r3]
 333 00a4 FFF7FEFF 		bl	__aeabi_dmul
 334 00a8 0246     		mov	r2, r0
 335 00aa 0B46     		mov	r3, r1
 336 00ac 43EC172B 		fmdrr	d7, r2, r3
 337 00b0 B0EE470A 		fcpys	s0, s14
 338 00b4 F0EE670A 		fcpys	s1, s15
 339 00b8 FFF7FEFF 		bl	cos
 340 00bc 53EC102B 		fmrrd	r2, r3, d0
 341 00c0 1046     		mov	r0, r2
 342 00c2 1946     		mov	r1, r3
 343 00c4 FFF7FEFF 		bl	__aeabi_dadd
 344 00c8 0246     		mov	r2, r0
 345 00ca 0B46     		mov	r3, r1
 346 00cc C7E90823 		strd	r2, [r7, #32]
  84:Src/filter.c  **** 
  85:Src/filter.c  ****     /*
  86:Src/filter.c  ****     ALGO:
  87:Src/filter.c  ****         while cbuf->size < WINDOW_SIZE
  88:Src/filter.c  ****             perform this loop (put new values of y into cbuf)
  89:Src/filter.c  ****         put new values into cbuf, subtract old y from d1 values
  90:Src/filter.c  **** 
  91:Src/filter.c  ****     TODO: Optimize circ_bufsum_add_sample to be able to be used when queue is not empty
  92:Src/filter.c  ****     */
  93:Src/filter.c  ****     static double d1 = 0;
  94:Src/filter.c  ****     static double d2 = 0; 
  95:Src/filter.c  ****     static double y  = 0;
  96:Src/filter.c  ****     static double total_power = 0;
  97:Src/filter.c  ****     printf("num_els: %lu, ", cbuf.num_els);
 347              		.loc 1 97 0
 348 00d0 564B     		ldr	r3, .L10+12
 349 00d2 9B68     		ldr	r3, [r3, #8]
 350 00d4 5748     		ldr	r0, .L10+20
 351 00d6 1946     		mov	r1, r3
 352 00d8 FFF7FEFF 		bl	printf
  98:Src/filter.c  ****     // Now the cbuf is full; add values, and subtract old y from d1
  99:Src/filter.c  ****     y = x + w_real * d1 - d2;
 353              		.loc 1 99 0
 354 00dc 564B     		ldr	r3, .L10+24
 355 00de D3E90023 		ldrd	r2, [r3]
 356 00e2 1046     		mov	r0, r2
ARM GAS  /var/folders/ck/4xtm3skj1ssb0w4rn7_4q_gw0000gn/T//cctheIXO.s 			page 9


 357 00e4 1946     		mov	r1, r3
 358 00e6 D7E90823 		ldrd	r2, [r7, #32]
 359 00ea FFF7FEFF 		bl	__aeabi_dmul
 360 00ee 0246     		mov	r2, r0
 361 00f0 0B46     		mov	r3, r1
 362 00f2 1046     		mov	r0, r2
 363 00f4 1946     		mov	r1, r3
 364 00f6 D7E90423 		ldrd	r2, [r7, #16]
 365 00fa FFF7FEFF 		bl	__aeabi_dadd
 366 00fe 0246     		mov	r2, r0
 367 0100 0B46     		mov	r3, r1
 368 0102 1046     		mov	r0, r2
 369 0104 1946     		mov	r1, r3
 370 0106 4D4B     		ldr	r3, .L10+28
 371 0108 D3E90023 		ldrd	r2, [r3]
 372 010c FFF7FEFF 		bl	__aeabi_dsub
 373 0110 0246     		mov	r2, r0
 374 0112 0B46     		mov	r3, r1
 375 0114 4A49     		ldr	r1, .L10+32
 376 0116 C1E90023 		strd	r2, [r1]
 100:Src/filter.c  ****     d2 = d1;
 377              		.loc 1 100 0
 378 011a 474B     		ldr	r3, .L10+24
 379 011c D3E90023 		ldrd	r2, [r3]
 380 0120 4649     		ldr	r1, .L10+28
 381 0122 C1E90023 		strd	r2, [r1]
 101:Src/filter.c  ****     double a = circ_bufsum_add_sample(&cbuf, y);
 382              		.loc 1 101 0
 383 0126 464B     		ldr	r3, .L10+32
 384 0128 93ED007B 		fldd	d7, [r3]
 385 012c 3F48     		ldr	r0, .L10+12
 386 012e B0EE470A 		fcpys	s0, s14
 387 0132 F0EE670A 		fcpys	s1, s15
 388 0136 FFF7FEFF 		bl	circ_bufsum_add_sample
 389 013a 87ED060B 		fstd	d0, [r7, #24]
 102:Src/filter.c  ****     d1 = y - a;
 390              		.loc 1 102 0
 391 013e 404B     		ldr	r3, .L10+32
 392 0140 D3E90023 		ldrd	r2, [r3]
 393 0144 1046     		mov	r0, r2
 394 0146 1946     		mov	r1, r3
 395 0148 D7E90623 		ldrd	r2, [r7, #24]
 396 014c FFF7FEFF 		bl	__aeabi_dsub
 397 0150 0246     		mov	r2, r0
 398 0152 0B46     		mov	r3, r1
 399 0154 3849     		ldr	r1, .L10+24
 400 0156 C1E90023 		strd	r2, [r1]
 103:Src/filter.c  ****     printf("%f", a);
 401              		.loc 1 103 0
 402 015a 3A48     		ldr	r0, .L10+36
 403 015c D7E90623 		ldrd	r2, [r7, #24]
 404 0160 FFF7FEFF 		bl	printf
 104:Src/filter.c  **** 
 105:Src/filter.c  ****     // printf("FRQ: %.9f", normalizedfreq * sample_rate);
 106:Src/filter.c  ****     // printf(" VAL: %.9f\n", d2 * d2 + d1 * d1 - w_real * d1 * d2);
 107:Src/filter.c  ****     // // Calculate power, and put it in its results spot
 108:Src/filter.c  ****     // MAY NEED TO NORMAILZE POWER
ARM GAS  /var/folders/ck/4xtm3skj1ssb0w4rn7_4q_gw0000gn/T//cctheIXO.s 			page 10


 109:Src/filter.c  ****     total_power += x * x;
 405              		.loc 1 109 0
 406 0164 D7E90401 		ldrd	r0, [r7, #16]
 407 0168 D7E90423 		ldrd	r2, [r7, #16]
 408 016c FFF7FEFF 		bl	__aeabi_dmul
 409 0170 0246     		mov	r2, r0
 410 0172 0B46     		mov	r3, r1
 411 0174 1046     		mov	r0, r2
 412 0176 1946     		mov	r1, r3
 413 0178 334B     		ldr	r3, .L10+40
 414 017a D3E90023 		ldrd	r2, [r3]
 415 017e FFF7FEFF 		bl	__aeabi_dadd
 416 0182 0246     		mov	r2, r0
 417 0184 0B46     		mov	r3, r1
 418 0186 3049     		ldr	r1, .L10+40
 419 0188 C1E90023 		strd	r2, [r1]
 110:Src/filter.c  ****     return ((d2 * d2 + d1 * d1 - w_real * d1 * d2)) / (total_power);
 420              		.loc 1 110 0
 421 018c 2B4B     		ldr	r3, .L10+28
 422 018e D3E90001 		ldrd	r0, [r3]
 423 0192 2A4B     		ldr	r3, .L10+28
 424 0194 D3E90023 		ldrd	r2, [r3]
 425 0198 FFF7FEFF 		bl	__aeabi_dmul
 426 019c 0246     		mov	r2, r0
 427 019e 0B46     		mov	r3, r1
 428 01a0 1446     		mov	r4, r2
 429 01a2 1D46     		mov	r5, r3
 430 01a4 244B     		ldr	r3, .L10+24
 431 01a6 D3E90001 		ldrd	r0, [r3]
 432 01aa 234B     		ldr	r3, .L10+24
 433 01ac D3E90023 		ldrd	r2, [r3]
 434 01b0 FFF7FEFF 		bl	__aeabi_dmul
 435 01b4 0246     		mov	r2, r0
 436 01b6 0B46     		mov	r3, r1
 437 01b8 2046     		mov	r0, r4
 438 01ba 2946     		mov	r1, r5
 439 01bc FFF7FEFF 		bl	__aeabi_dadd
 440 01c0 0246     		mov	r2, r0
 441 01c2 0B46     		mov	r3, r1
 442 01c4 1446     		mov	r4, r2
 443 01c6 1D46     		mov	r5, r3
 444 01c8 1B4B     		ldr	r3, .L10+24
 445 01ca D3E90023 		ldrd	r2, [r3]
 446 01ce 1046     		mov	r0, r2
 447 01d0 1946     		mov	r1, r3
 448 01d2 D7E90823 		ldrd	r2, [r7, #32]
 449 01d6 FFF7FEFF 		bl	__aeabi_dmul
 450 01da 0246     		mov	r2, r0
 451 01dc 0B46     		mov	r3, r1
 452 01de 1046     		mov	r0, r2
 453 01e0 1946     		mov	r1, r3
 454 01e2 164B     		ldr	r3, .L10+28
 455 01e4 D3E90023 		ldrd	r2, [r3]
 456 01e8 FFF7FEFF 		bl	__aeabi_dmul
 457 01ec 0246     		mov	r2, r0
 458 01ee 0B46     		mov	r3, r1
 459 01f0 2046     		mov	r0, r4
ARM GAS  /var/folders/ck/4xtm3skj1ssb0w4rn7_4q_gw0000gn/T//cctheIXO.s 			page 11


 460 01f2 2946     		mov	r1, r5
 461 01f4 FFF7FEFF 		bl	__aeabi_dsub
 462 01f8 0246     		mov	r2, r0
 463 01fa 0B46     		mov	r3, r1
 464 01fc 1046     		mov	r0, r2
 465 01fe 1946     		mov	r1, r3
 466 0200 114B     		ldr	r3, .L10+40
 467 0202 D3E90023 		ldrd	r2, [r3]
 468 0206 FFF7FEFF 		bl	__aeabi_ddiv
 469 020a 0246     		mov	r2, r0
 470 020c 0B46     		mov	r3, r1
 471 020e 43EC172B 		fmdrr	d7, r2, r3
 111:Src/filter.c  **** }
 472              		.loc 1 111 0
 473 0212 B0EE470A 		fcpys	s0, s14
 474 0216 F0EE670A 		fcpys	s1, s15
 475 021a 4837     		adds	r7, r7, #72
 476              	.LCFI8:
 477              		.cfi_def_cfa_offset 16
 478 021c BD46     		mov	sp, r7
 479              	.LCFI9:
 480              		.cfi_def_cfa_register 13
 481              		@ sp needed
 482 021e B0BD     		pop	{r4, r5, r7, pc}
 483              	.L11:
 484              		.align	3
 485              	.L10:
 486 0220 182D4454 		.word	1413754136
 487 0224 FB211940 		.word	1075388923
 488 0228 00000000 		.word	initialized.6053
 489 022c 00000000 		.word	cbuf.6054
 490 0230 0000F03F 		.word	1072693248
 491 0234 00000000 		.word	.LC0
 492 0238 00000000 		.word	d1.6060
 493 023c 00000000 		.word	d2.6061
 494 0240 00000000 		.word	y.6062
 495 0244 10000000 		.word	.LC1
 496 0248 00000000 		.word	total_power.6063
 497              		.cfi_endproc
 498              	.LFE1:
 500              		.section	.text.tandem_goertzel_stream,"ax",%progbits
 501              		.align	2
 502              		.global	tandem_goertzel_stream
 503              		.thumb
 504              		.thumb_func
 506              	tandem_goertzel_stream:
 507              	.LFB2:
 112:Src/filter.c  **** 
 113:Src/filter.c  **** /*
 114:Src/filter.c  **** Takes a stream of samples at sample_rate. returns current power every iteration
 115:Src/filter.c  **** sample_rate = 1024
 116:Src/filter.c  **** resetsample = 512
 117:Src/filter.c  **** 
 118:Src/filter.c  **** Adapted from https://netwerkt.wordpress.com/2011/08/25/goertzel-filter/
 119:Src/filter.c  **** */
 120:Src/filter.c  **** double tandem_goertzel_stream(double x, int freq, int sample_rate, int resetsample)
 121:Src/filter.c  **** {
ARM GAS  /var/folders/ck/4xtm3skj1ssb0w4rn7_4q_gw0000gn/T//cctheIXO.s 			page 12


 508              		.loc 1 121 0
 509              		.cfi_startproc
 510              		@ args = 0, pretend = 0, frame = 64
 511              		@ frame_needed = 1, uses_anonymous_args = 0
 512 0000 B0B5     		push	{r4, r5, r7, lr}
 513              	.LCFI10:
 514              		.cfi_def_cfa_offset 16
 515              		.cfi_offset 4, -16
 516              		.cfi_offset 5, -12
 517              		.cfi_offset 7, -8
 518              		.cfi_offset 14, -4
 519 0002 90B0     		sub	sp, sp, #64
 520              	.LCFI11:
 521              		.cfi_def_cfa_offset 80
 522 0004 00AF     		add	r7, sp, #0
 523              	.LCFI12:
 524              		.cfi_def_cfa_register 7
 525 0006 87ED040B 		fstd	d0, [r7, #16]
 526 000a F860     		str	r0, [r7, #12]
 527 000c B960     		str	r1, [r7, #8]
 528 000e 7A60     		str	r2, [r7, #4]
 122:Src/filter.c  ****     static double s_prev[2] = {0.0, 0.0};
 123:Src/filter.c  ****     static double s_prev2[2] = {0.0, 0.0};
 124:Src/filter.c  ****     static double total_power[2] = {0.0, 0.0};
 125:Src/filter.c  ****     static int N = 0;
 126:Src/filter.c  ****     double w_real, normalizedfreq, power, s;
 127:Src/filter.c  ****     int active;
 128:Src/filter.c  ****     static int n[2] = {0, 0};
 129:Src/filter.c  **** 
 130:Src/filter.c  ****     normalizedfreq = freq / sample_rate;
 529              		.loc 1 130 0
 530 0010 FA68     		ldr	r2, [r7, #12]
 531 0012 BB68     		ldr	r3, [r7, #8]
 532 0014 92FBF3F3 		sdiv	r3, r2, r3
 533 0018 1846     		mov	r0, r3
 534 001a FFF7FEFF 		bl	__aeabi_i2d
 535 001e 0246     		mov	r2, r0
 536 0020 0B46     		mov	r3, r1
 537 0022 C7E90E23 		strd	r2, [r7, #56]
 131:Src/filter.c  ****     w_real = 2.0 * cos(2.0 * PI * normalizedfreq);
 538              		.loc 1 131 0
 539 0026 D7E90E01 		ldrd	r0, [r7, #56]
 540 002a B4A3     		adr	r3, .L15+28
 541 002c D3E90023 		ldrd	r2, [r3]
 542 0030 FFF7FEFF 		bl	__aeabi_dmul
 543 0034 0246     		mov	r2, r0
 544 0036 0B46     		mov	r3, r1
 545 0038 43EC172B 		fmdrr	d7, r2, r3
 546 003c B0EE470A 		fcpys	s0, s14
 547 0040 F0EE670A 		fcpys	s1, s15
 548 0044 FFF7FEFF 		bl	cos
 549 0048 53EC102B 		fmrrd	r2, r3, d0
 550 004c 1046     		mov	r0, r2
 551 004e 1946     		mov	r1, r3
 552 0050 FFF7FEFF 		bl	__aeabi_dadd
 553 0054 0246     		mov	r2, r0
 554 0056 0B46     		mov	r3, r1
ARM GAS  /var/folders/ck/4xtm3skj1ssb0w4rn7_4q_gw0000gn/T//cctheIXO.s 			page 13


 555 0058 C7E90C23 		strd	r2, [r7, #48]
 132:Src/filter.c  **** 
 133:Src/filter.c  ****     // Calculate the first set of samples
 134:Src/filter.c  ****     s = x + w_real * s_prev[0] - s_prev2[0];
 556              		.loc 1 134 0
 557 005c A24B     		ldr	r3, .L15+8
 558 005e D3E90023 		ldrd	r2, [r3]
 559 0062 1046     		mov	r0, r2
 560 0064 1946     		mov	r1, r3
 561 0066 D7E90C23 		ldrd	r2, [r7, #48]
 562 006a FFF7FEFF 		bl	__aeabi_dmul
 563 006e 0246     		mov	r2, r0
 564 0070 0B46     		mov	r3, r1
 565 0072 1046     		mov	r0, r2
 566 0074 1946     		mov	r1, r3
 567 0076 D7E90423 		ldrd	r2, [r7, #16]
 568 007a FFF7FEFF 		bl	__aeabi_dadd
 569 007e 0246     		mov	r2, r0
 570 0080 0B46     		mov	r3, r1
 571 0082 1046     		mov	r0, r2
 572 0084 1946     		mov	r1, r3
 573 0086 994B     		ldr	r3, .L15+12
 574 0088 D3E90023 		ldrd	r2, [r3]
 575 008c FFF7FEFF 		bl	__aeabi_dsub
 576 0090 0246     		mov	r2, r0
 577 0092 0B46     		mov	r3, r1
 578 0094 C7E90A23 		strd	r2, [r7, #40]
 135:Src/filter.c  ****     s_prev2[0] = s_prev[0];
 579              		.loc 1 135 0
 580 0098 934B     		ldr	r3, .L15+8
 581 009a D3E90023 		ldrd	r2, [r3]
 582 009e 9349     		ldr	r1, .L15+12
 583 00a0 C1E90023 		strd	r2, [r1]
 136:Src/filter.c  ****     s_prev[0] = s;
 584              		.loc 1 136 0
 585 00a4 9049     		ldr	r1, .L15+8
 586 00a6 D7E90A23 		ldrd	r2, [r7, #40]
 587 00aa C1E90023 		strd	r2, [r1]
 137:Src/filter.c  ****     n[0]++;
 588              		.loc 1 137 0
 589 00ae 904B     		ldr	r3, .L15+16
 590 00b0 1B68     		ldr	r3, [r3]
 591 00b2 0133     		adds	r3, r3, #1
 592 00b4 8E4A     		ldr	r2, .L15+16
 593 00b6 1360     		str	r3, [r2]
 138:Src/filter.c  **** 
 139:Src/filter.c  ****     // Calculate the second set of samples
 140:Src/filter.c  ****     s = x + w_real * s_prev[1] - s_prev2[1];
 594              		.loc 1 140 0
 595 00b8 8B4B     		ldr	r3, .L15+8
 596 00ba D3E90223 		ldrd	r2, [r3, #8]
 597 00be 1046     		mov	r0, r2
 598 00c0 1946     		mov	r1, r3
 599 00c2 D7E90C23 		ldrd	r2, [r7, #48]
 600 00c6 FFF7FEFF 		bl	__aeabi_dmul
 601 00ca 0246     		mov	r2, r0
 602 00cc 0B46     		mov	r3, r1
ARM GAS  /var/folders/ck/4xtm3skj1ssb0w4rn7_4q_gw0000gn/T//cctheIXO.s 			page 14


 603 00ce 1046     		mov	r0, r2
 604 00d0 1946     		mov	r1, r3
 605 00d2 D7E90423 		ldrd	r2, [r7, #16]
 606 00d6 FFF7FEFF 		bl	__aeabi_dadd
 607 00da 0246     		mov	r2, r0
 608 00dc 0B46     		mov	r3, r1
 609 00de 1046     		mov	r0, r2
 610 00e0 1946     		mov	r1, r3
 611 00e2 824B     		ldr	r3, .L15+12
 612 00e4 D3E90223 		ldrd	r2, [r3, #8]
 613 00e8 FFF7FEFF 		bl	__aeabi_dsub
 614 00ec 0246     		mov	r2, r0
 615 00ee 0B46     		mov	r3, r1
 616 00f0 C7E90A23 		strd	r2, [r7, #40]
 141:Src/filter.c  ****     s_prev2[1] = s_prev[1];
 617              		.loc 1 141 0
 618 00f4 7C4B     		ldr	r3, .L15+8
 619 00f6 D3E90223 		ldrd	r2, [r3, #8]
 620 00fa 7C49     		ldr	r1, .L15+12
 621 00fc C1E90223 		strd	r2, [r1, #8]
 142:Src/filter.c  ****     s_prev[1] = s;
 622              		.loc 1 142 0
 623 0100 7949     		ldr	r1, .L15+8
 624 0102 D7E90A23 		ldrd	r2, [r7, #40]
 625 0106 C1E90223 		strd	r2, [r1, #8]
 143:Src/filter.c  ****     n[1]++;
 626              		.loc 1 143 0
 627 010a 794B     		ldr	r3, .L15+16
 628 010c 5B68     		ldr	r3, [r3, #4]
 629 010e 0133     		adds	r3, r3, #1
 630 0110 774A     		ldr	r2, .L15+16
 631 0112 5360     		str	r3, [r2, #4]
 144:Src/filter.c  **** 
 145:Src/filter.c  ****     N++;
 632              		.loc 1 145 0
 633 0114 774B     		ldr	r3, .L15+20
 634 0116 1B68     		ldr	r3, [r3]
 635 0118 0133     		adds	r3, r3, #1
 636 011a 764A     		ldr	r2, .L15+20
 637 011c 1360     		str	r3, [r2]
 146:Src/filter.c  **** 
 147:Src/filter.c  ****     // reset inactive
 148:Src/filter.c  ****     active = (N / resetsample) & 0x01;
 638              		.loc 1 148 0
 639 011e 754B     		ldr	r3, .L15+20
 640 0120 1A68     		ldr	r2, [r3]
 641 0122 7B68     		ldr	r3, [r7, #4]
 642 0124 92FBF3F3 		sdiv	r3, r2, r3
 643 0128 03F00103 		and	r3, r3, #1
 644 012c 7B62     		str	r3, [r7, #36]
 149:Src/filter.c  ****     if (n[1 - active] >= resetsample)
 645              		.loc 1 149 0
 646 012e 7B6A     		ldr	r3, [r7, #36]
 647 0130 C3F10103 		rsb	r3, r3, #1
 648 0134 6E4A     		ldr	r2, .L15+16
 649 0136 52F82320 		ldr	r2, [r2, r3, lsl #2]
 650 013a 7B68     		ldr	r3, [r7, #4]
ARM GAS  /var/folders/ck/4xtm3skj1ssb0w4rn7_4q_gw0000gn/T//cctheIXO.s 			page 15


 651 013c 9A42     		cmp	r2, r3
 652 013e 2ADB     		blt	.L13
 150:Src/filter.c  ****     {
 151:Src/filter.c  ****         s_prev[1 - active] = 0.0;
 653              		.loc 1 151 0
 654 0140 7B6A     		ldr	r3, [r7, #36]
 655 0142 C3F10103 		rsb	r3, r3, #1
 656 0146 684A     		ldr	r2, .L15+8
 657 0148 DB00     		lsls	r3, r3, #3
 658 014a D118     		adds	r1, r2, r3
 659 014c 4FF00002 		mov	r2, #0
 660 0150 4FF00003 		mov	r3, #0
 661 0154 C1E90023 		strd	r2, [r1]
 152:Src/filter.c  ****         s_prev2[1 - active] = 0.0;
 662              		.loc 1 152 0
 663 0158 7B6A     		ldr	r3, [r7, #36]
 664 015a C3F10103 		rsb	r3, r3, #1
 665 015e 634A     		ldr	r2, .L15+12
 666 0160 DB00     		lsls	r3, r3, #3
 667 0162 D118     		adds	r1, r2, r3
 668 0164 4FF00002 		mov	r2, #0
 669 0168 4FF00003 		mov	r3, #0
 670 016c C1E90023 		strd	r2, [r1]
 153:Src/filter.c  ****         total_power[1 - active] = 0.0;
 671              		.loc 1 153 0
 672 0170 7B6A     		ldr	r3, [r7, #36]
 673 0172 C3F10103 		rsb	r3, r3, #1
 674 0176 604A     		ldr	r2, .L15+24
 675 0178 DB00     		lsls	r3, r3, #3
 676 017a D118     		adds	r1, r2, r3
 677 017c 4FF00002 		mov	r2, #0
 678 0180 4FF00003 		mov	r3, #0
 679 0184 C1E90023 		strd	r2, [r1]
 154:Src/filter.c  ****         n[1 - active] = 0;
 680              		.loc 1 154 0
 681 0188 7B6A     		ldr	r3, [r7, #36]
 682 018a C3F10103 		rsb	r3, r3, #1
 683 018e 584A     		ldr	r2, .L15+16
 684 0190 0021     		movs	r1, #0
 685 0192 42F82310 		str	r1, [r2, r3, lsl #2]
 686              	.L13:
 155:Src/filter.c  ****     }
 156:Src/filter.c  ****     total_power[0] += x * x;
 687              		.loc 1 156 0
 688 0196 584B     		ldr	r3, .L15+24
 689 0198 D3E90045 		ldrd	r4, [r3]
 690 019c D7E90401 		ldrd	r0, [r7, #16]
 691 01a0 D7E90423 		ldrd	r2, [r7, #16]
 692 01a4 FFF7FEFF 		bl	__aeabi_dmul
 693 01a8 0246     		mov	r2, r0
 694 01aa 0B46     		mov	r3, r1
 695 01ac 2046     		mov	r0, r4
 696 01ae 2946     		mov	r1, r5
 697 01b0 FFF7FEFF 		bl	__aeabi_dadd
 698 01b4 0246     		mov	r2, r0
 699 01b6 0B46     		mov	r3, r1
 700 01b8 4F49     		ldr	r1, .L15+24
ARM GAS  /var/folders/ck/4xtm3skj1ssb0w4rn7_4q_gw0000gn/T//cctheIXO.s 			page 16


 701 01ba C1E90023 		strd	r2, [r1]
 157:Src/filter.c  ****     total_power[1] += x * x;
 702              		.loc 1 157 0
 703 01be 4E4B     		ldr	r3, .L15+24
 704 01c0 D3E90245 		ldrd	r4, [r3, #8]
 705 01c4 D7E90401 		ldrd	r0, [r7, #16]
 706 01c8 D7E90423 		ldrd	r2, [r7, #16]
 707 01cc FFF7FEFF 		bl	__aeabi_dmul
 708 01d0 0246     		mov	r2, r0
 709 01d2 0B46     		mov	r3, r1
 710 01d4 2046     		mov	r0, r4
 711 01d6 2946     		mov	r1, r5
 712 01d8 FFF7FEFF 		bl	__aeabi_dadd
 713 01dc 0246     		mov	r2, r0
 714 01de 0B46     		mov	r3, r1
 715 01e0 4549     		ldr	r1, .L15+24
 716 01e2 C1E90223 		strd	r2, [r1, #8]
 158:Src/filter.c  ****     power = s_prev2[active] * s_prev2[active] + s_prev[active] * s_prev[active] - w_real * s_prev[a
 717              		.loc 1 158 0
 718 01e6 414A     		ldr	r2, .L15+12
 719 01e8 7B6A     		ldr	r3, [r7, #36]
 720 01ea DB00     		lsls	r3, r3, #3
 721 01ec 1344     		add	r3, r3, r2
 722 01ee D3E90001 		ldrd	r0, [r3]
 723 01f2 3E4A     		ldr	r2, .L15+12
 724 01f4 7B6A     		ldr	r3, [r7, #36]
 725 01f6 DB00     		lsls	r3, r3, #3
 726 01f8 1344     		add	r3, r3, r2
 727 01fa D3E90023 		ldrd	r2, [r3]
 728 01fe FFF7FEFF 		bl	__aeabi_dmul
 729 0202 0246     		mov	r2, r0
 730 0204 0B46     		mov	r3, r1
 731 0206 1446     		mov	r4, r2
 732 0208 1D46     		mov	r5, r3
 733 020a 374A     		ldr	r2, .L15+8
 734 020c 7B6A     		ldr	r3, [r7, #36]
 735 020e DB00     		lsls	r3, r3, #3
 736 0210 1344     		add	r3, r3, r2
 737 0212 D3E90001 		ldrd	r0, [r3]
 738 0216 344A     		ldr	r2, .L15+8
 739 0218 7B6A     		ldr	r3, [r7, #36]
 740 021a DB00     		lsls	r3, r3, #3
 741 021c 1344     		add	r3, r3, r2
 742 021e D3E90023 		ldrd	r2, [r3]
 743 0222 FFF7FEFF 		bl	__aeabi_dmul
 744 0226 0246     		mov	r2, r0
 745 0228 0B46     		mov	r3, r1
 746 022a 2046     		mov	r0, r4
 747 022c 2946     		mov	r1, r5
 748 022e FFF7FEFF 		bl	__aeabi_dadd
 749 0232 0246     		mov	r2, r0
 750 0234 0B46     		mov	r3, r1
 751 0236 1446     		mov	r4, r2
 752 0238 1D46     		mov	r5, r3
 753 023a 2B4A     		ldr	r2, .L15+8
 754 023c 7B6A     		ldr	r3, [r7, #36]
 755 023e DB00     		lsls	r3, r3, #3
ARM GAS  /var/folders/ck/4xtm3skj1ssb0w4rn7_4q_gw0000gn/T//cctheIXO.s 			page 17


 756 0240 1344     		add	r3, r3, r2
 757 0242 D3E90023 		ldrd	r2, [r3]
 758 0246 1046     		mov	r0, r2
 759 0248 1946     		mov	r1, r3
 760 024a D7E90C23 		ldrd	r2, [r7, #48]
 761 024e FFF7FEFF 		bl	__aeabi_dmul
 762 0252 0246     		mov	r2, r0
 763 0254 0B46     		mov	r3, r1
 764 0256 1046     		mov	r0, r2
 765 0258 1946     		mov	r1, r3
 766 025a 244A     		ldr	r2, .L15+12
 767 025c 7B6A     		ldr	r3, [r7, #36]
 768 025e DB00     		lsls	r3, r3, #3
 769 0260 1344     		add	r3, r3, r2
 770 0262 D3E90023 		ldrd	r2, [r3]
 771 0266 FFF7FEFF 		bl	__aeabi_dmul
 772 026a 0246     		mov	r2, r0
 773 026c 0B46     		mov	r3, r1
 774 026e 2046     		mov	r0, r4
 775 0270 2946     		mov	r1, r5
 776 0272 FFF7FEFF 		bl	__aeabi_dsub
 777 0276 0246     		mov	r2, r0
 778 0278 0B46     		mov	r3, r1
 779 027a C7E90623 		strd	r2, [r7, #24]
 159:Src/filter.c  **** 
 160:Src/filter.c  ****     // printf("\n\npoooower %f\n", power);
 161:Src/filter.c  ****     return power / (total_power[active] + 1e-7) / n[active];
 780              		.loc 1 161 0
 781 027e 1E4A     		ldr	r2, .L15+24
 782 0280 7B6A     		ldr	r3, [r7, #36]
 783 0282 DB00     		lsls	r3, r3, #3
 784 0284 1344     		add	r3, r3, r2
 785 0286 D3E90023 		ldrd	r2, [r3]
 786 028a 1046     		mov	r0, r2
 787 028c 1946     		mov	r1, r3
 788 028e 14A3     		adr	r3, .L15
 789 0290 D3E90023 		ldrd	r2, [r3]
 790 0294 FFF7FEFF 		bl	__aeabi_dadd
 791 0298 0246     		mov	r2, r0
 792 029a 0B46     		mov	r3, r1
 793 029c D7E90601 		ldrd	r0, [r7, #24]
 794 02a0 FFF7FEFF 		bl	__aeabi_ddiv
 795 02a4 0246     		mov	r2, r0
 796 02a6 0B46     		mov	r3, r1
 797 02a8 1446     		mov	r4, r2
 798 02aa 1D46     		mov	r5, r3
 799 02ac 104A     		ldr	r2, .L15+16
 800 02ae 7B6A     		ldr	r3, [r7, #36]
 801 02b0 52F82330 		ldr	r3, [r2, r3, lsl #2]
 802 02b4 1846     		mov	r0, r3
 803 02b6 FFF7FEFF 		bl	__aeabi_i2d
 804 02ba 0246     		mov	r2, r0
 805 02bc 0B46     		mov	r3, r1
 806 02be 2046     		mov	r0, r4
 807 02c0 2946     		mov	r1, r5
 808 02c2 FFF7FEFF 		bl	__aeabi_ddiv
 809 02c6 0246     		mov	r2, r0
ARM GAS  /var/folders/ck/4xtm3skj1ssb0w4rn7_4q_gw0000gn/T//cctheIXO.s 			page 18


 810 02c8 0B46     		mov	r3, r1
 811 02ca 43EC172B 		fmdrr	d7, r2, r3
 162:Src/filter.c  **** }
 812              		.loc 1 162 0
 813 02ce B0EE470A 		fcpys	s0, s14
 814 02d2 F0EE670A 		fcpys	s1, s15
 815 02d6 4037     		adds	r7, r7, #64
 816              	.LCFI13:
 817              		.cfi_def_cfa_offset 16
 818 02d8 BD46     		mov	sp, r7
 819              	.LCFI14:
 820              		.cfi_def_cfa_register 13
 821              		@ sp needed
 822 02da B0BD     		pop	{r4, r5, r7, pc}
 823              	.L16:
 824 02dc AFF30080 		.align	3
 825              	.L15:
 826 02e0 48AFBC9A 		.word	2596056904
 827 02e4 F2D77A3E 		.word	1048238066
 828 02e8 00000000 		.word	s_prev.6071
 829 02ec 00000000 		.word	s_prev2.6072
 830 02f0 00000000 		.word	n.6080
 831 02f4 00000000 		.word	N.6074
 832 02f8 00000000 		.word	total_power.6073
 833 02fc 182D4454 		.word	1413754136
 834 0300 FB211940 		.word	1075388923
 835              		.cfi_endproc
 836              	.LFE2:
 838              		.section	.bss.initialized.6053,"aw",%nobits
 839              		.align	2
 842              	initialized.6053:
 843 0000 00000000 		.space	4
 844              		.section	.bss.cbuf.6054,"aw",%nobits
 845              		.align	2
 848              	cbuf.6054:
 849 0000 00000000 		.space	24
 849      00000000 
 849      00000000 
 849      00000000 
 849      00000000 
 850              		.section	.bss.d1.6060,"aw",%nobits
 851              		.align	3
 854              	d1.6060:
 855 0000 00000000 		.space	8
 855      00000000 
 856              		.section	.bss.d2.6061,"aw",%nobits
 857              		.align	3
 860              	d2.6061:
 861 0000 00000000 		.space	8
 861      00000000 
 862              		.section	.bss.y.6062,"aw",%nobits
 863              		.align	3
 866              	y.6062:
 867 0000 00000000 		.space	8
 867      00000000 
 868              		.section	.bss.total_power.6063,"aw",%nobits
 869              		.align	3
ARM GAS  /var/folders/ck/4xtm3skj1ssb0w4rn7_4q_gw0000gn/T//cctheIXO.s 			page 19


 872              	total_power.6063:
 873 0000 00000000 		.space	8
 873      00000000 
 874              		.section	.bss.s_prev.6071,"aw",%nobits
 875              		.align	3
 878              	s_prev.6071:
 879 0000 00000000 		.space	16
 879      00000000 
 879      00000000 
 879      00000000 
 880              		.section	.bss.s_prev2.6072,"aw",%nobits
 881              		.align	3
 884              	s_prev2.6072:
 885 0000 00000000 		.space	16
 885      00000000 
 885      00000000 
 885      00000000 
 886              		.section	.bss.n.6080,"aw",%nobits
 887              		.align	2
 890              	n.6080:
 891 0000 00000000 		.space	8
 891      00000000 
 892              		.section	.bss.N.6074,"aw",%nobits
 893              		.align	2
 896              	N.6074:
 897 0000 00000000 		.space	4
 898              		.section	.bss.total_power.6073,"aw",%nobits
 899              		.align	3
 902              	total_power.6073:
 903 0000 00000000 		.space	16
 903      00000000 
 903      00000000 
 903      00000000 
 904              		.text
 905              	.Letext0:
 906              		.file 2 "/usr/local/Cellar/arm-none-eabi-gcc/20150921/arm-none-eabi/include/machine/_default_types
 907              		.file 3 "/usr/local/Cellar/arm-none-eabi-gcc/20150921/lib/gcc/arm-none-eabi/4.9.3/include/stddef.h
 908              		.file 4 "/usr/local/Cellar/arm-none-eabi-gcc/20150921/arm-none-eabi/include/sys/_stdint.h"
 909              		.file 5 "Inc/circular_buffer.h"
ARM GAS  /var/folders/ck/4xtm3skj1ssb0w4rn7_4q_gw0000gn/T//cctheIXO.s 			page 20

