ARM GAS  /var/folders/ck/4xtm3skj1ssb0w4rn7_4q_gw0000gn/T//ccdOVP6q.s 			page 1


   1              		.syntax unified
   2              		.cpu cortex-m4
   3              		.eabi_attribute 27, 1
   4              		.eabi_attribute 28, 1
   5              		.fpu fpv4-sp-d16
   6              		.eabi_attribute 20, 1
   7              		.eabi_attribute 21, 1
   8              		.eabi_attribute 23, 3
   9              		.eabi_attribute 24, 1
  10              		.eabi_attribute 25, 1
  11              		.eabi_attribute 26, 1
  12              		.eabi_attribute 30, 6
  13              		.eabi_attribute 34, 1
  14              		.eabi_attribute 18, 4
  15              		.thumb
  16              		.file	"stm32f4xx_hal_adc_ex.c"
  17              		.text
  18              	.Ltext0:
  19              		.cfi_sections	.debug_frame
  20              		.section	.text.HAL_ADCEx_InjectedStart,"ax",%progbits
  21              		.align	2
  22              		.global	HAL_ADCEx_InjectedStart
  23              		.thumb
  24              		.thumb_func
  26              	HAL_ADCEx_InjectedStart:
  27              	.LFB123:
  28              		.file 1 "Drivers/STM32F4xx_HAL_Driver/Src/stm32f4xx_hal_adc_ex.c"
   1:Drivers/STM32F4xx_HAL_Driver/Src/stm32f4xx_hal_adc_ex.c **** /**
   2:Drivers/STM32F4xx_HAL_Driver/Src/stm32f4xx_hal_adc_ex.c ****   ******************************************************************************
   3:Drivers/STM32F4xx_HAL_Driver/Src/stm32f4xx_hal_adc_ex.c ****   * @file    stm32f4xx_hal_adc_ex.c
   4:Drivers/STM32F4xx_HAL_Driver/Src/stm32f4xx_hal_adc_ex.c ****   * @author  MCD Application Team
   5:Drivers/STM32F4xx_HAL_Driver/Src/stm32f4xx_hal_adc_ex.c ****   * @brief   This file provides firmware functions to manage the following 
   6:Drivers/STM32F4xx_HAL_Driver/Src/stm32f4xx_hal_adc_ex.c ****   *          functionalities of the ADC extension peripheral:
   7:Drivers/STM32F4xx_HAL_Driver/Src/stm32f4xx_hal_adc_ex.c ****   *           + Extended features functions
   8:Drivers/STM32F4xx_HAL_Driver/Src/stm32f4xx_hal_adc_ex.c ****   *         
   9:Drivers/STM32F4xx_HAL_Driver/Src/stm32f4xx_hal_adc_ex.c ****   @verbatim
  10:Drivers/STM32F4xx_HAL_Driver/Src/stm32f4xx_hal_adc_ex.c ****   ==============================================================================
  11:Drivers/STM32F4xx_HAL_Driver/Src/stm32f4xx_hal_adc_ex.c ****                     ##### How to use this driver #####
  12:Drivers/STM32F4xx_HAL_Driver/Src/stm32f4xx_hal_adc_ex.c ****   ==============================================================================
  13:Drivers/STM32F4xx_HAL_Driver/Src/stm32f4xx_hal_adc_ex.c ****     [..]
  14:Drivers/STM32F4xx_HAL_Driver/Src/stm32f4xx_hal_adc_ex.c ****     (#)Initialize the ADC low level resources by implementing the HAL_ADC_MspInit():
  15:Drivers/STM32F4xx_HAL_Driver/Src/stm32f4xx_hal_adc_ex.c ****        (##) Enable the ADC interface clock using __HAL_RCC_ADC_CLK_ENABLE()
  16:Drivers/STM32F4xx_HAL_Driver/Src/stm32f4xx_hal_adc_ex.c ****        (##) ADC pins configuration
  17:Drivers/STM32F4xx_HAL_Driver/Src/stm32f4xx_hal_adc_ex.c ****              (+++) Enable the clock for the ADC GPIOs using the following function:
  18:Drivers/STM32F4xx_HAL_Driver/Src/stm32f4xx_hal_adc_ex.c ****                    __HAL_RCC_GPIOx_CLK_ENABLE()  
  19:Drivers/STM32F4xx_HAL_Driver/Src/stm32f4xx_hal_adc_ex.c ****              (+++) Configure these ADC pins in analog mode using HAL_GPIO_Init() 
  20:Drivers/STM32F4xx_HAL_Driver/Src/stm32f4xx_hal_adc_ex.c ****        (##) In case of using interrupts (e.g. HAL_ADC_Start_IT())
  21:Drivers/STM32F4xx_HAL_Driver/Src/stm32f4xx_hal_adc_ex.c ****              (+++) Configure the ADC interrupt priority using HAL_NVIC_SetPriority()
  22:Drivers/STM32F4xx_HAL_Driver/Src/stm32f4xx_hal_adc_ex.c ****              (+++) Enable the ADC IRQ handler using HAL_NVIC_EnableIRQ()
  23:Drivers/STM32F4xx_HAL_Driver/Src/stm32f4xx_hal_adc_ex.c ****              (+++) In ADC IRQ handler, call HAL_ADC_IRQHandler()
  24:Drivers/STM32F4xx_HAL_Driver/Src/stm32f4xx_hal_adc_ex.c ****       (##) In case of using DMA to control data transfer (e.g. HAL_ADC_Start_DMA())
  25:Drivers/STM32F4xx_HAL_Driver/Src/stm32f4xx_hal_adc_ex.c ****              (+++) Enable the DMAx interface clock using __HAL_RCC_DMAx_CLK_ENABLE()
  26:Drivers/STM32F4xx_HAL_Driver/Src/stm32f4xx_hal_adc_ex.c ****              (+++) Configure and enable two DMA streams stream for managing data
  27:Drivers/STM32F4xx_HAL_Driver/Src/stm32f4xx_hal_adc_ex.c ****                  transfer from peripheral to memory (output stream)
  28:Drivers/STM32F4xx_HAL_Driver/Src/stm32f4xx_hal_adc_ex.c ****              (+++) Associate the initialized DMA handle to the ADC DMA handle
  29:Drivers/STM32F4xx_HAL_Driver/Src/stm32f4xx_hal_adc_ex.c ****                  using  __HAL_LINKDMA()
  30:Drivers/STM32F4xx_HAL_Driver/Src/stm32f4xx_hal_adc_ex.c ****              (+++) Configure the priority and enable the NVIC for the transfer complete
ARM GAS  /var/folders/ck/4xtm3skj1ssb0w4rn7_4q_gw0000gn/T//ccdOVP6q.s 			page 2


  31:Drivers/STM32F4xx_HAL_Driver/Src/stm32f4xx_hal_adc_ex.c ****                  interrupt on the two DMA Streams. The output stream should have higher
  32:Drivers/STM32F4xx_HAL_Driver/Src/stm32f4xx_hal_adc_ex.c ****                  priority than the input stream.
  33:Drivers/STM32F4xx_HAL_Driver/Src/stm32f4xx_hal_adc_ex.c ****      (#) Configure the ADC Prescaler, conversion resolution and data alignment 
  34:Drivers/STM32F4xx_HAL_Driver/Src/stm32f4xx_hal_adc_ex.c ****          using the HAL_ADC_Init() function. 
  35:Drivers/STM32F4xx_HAL_Driver/Src/stm32f4xx_hal_adc_ex.c ****   
  36:Drivers/STM32F4xx_HAL_Driver/Src/stm32f4xx_hal_adc_ex.c ****      (#) Configure the ADC Injected channels group features, use HAL_ADC_Init()
  37:Drivers/STM32F4xx_HAL_Driver/Src/stm32f4xx_hal_adc_ex.c ****          and HAL_ADC_ConfigChannel() functions.
  38:Drivers/STM32F4xx_HAL_Driver/Src/stm32f4xx_hal_adc_ex.c ****          
  39:Drivers/STM32F4xx_HAL_Driver/Src/stm32f4xx_hal_adc_ex.c ****      (#) Three operation modes are available within this driver :     
  40:Drivers/STM32F4xx_HAL_Driver/Src/stm32f4xx_hal_adc_ex.c ****   
  41:Drivers/STM32F4xx_HAL_Driver/Src/stm32f4xx_hal_adc_ex.c ****      *** Polling mode IO operation ***
  42:Drivers/STM32F4xx_HAL_Driver/Src/stm32f4xx_hal_adc_ex.c ****      =================================
  43:Drivers/STM32F4xx_HAL_Driver/Src/stm32f4xx_hal_adc_ex.c ****      [..]    
  44:Drivers/STM32F4xx_HAL_Driver/Src/stm32f4xx_hal_adc_ex.c ****        (+) Start the ADC peripheral using HAL_ADCEx_InjectedStart() 
  45:Drivers/STM32F4xx_HAL_Driver/Src/stm32f4xx_hal_adc_ex.c ****        (+) Wait for end of conversion using HAL_ADC_PollForConversion(), at this stage
  46:Drivers/STM32F4xx_HAL_Driver/Src/stm32f4xx_hal_adc_ex.c ****            user can specify the value of timeout according to his end application      
  47:Drivers/STM32F4xx_HAL_Driver/Src/stm32f4xx_hal_adc_ex.c ****        (+) To read the ADC converted values, use the HAL_ADCEx_InjectedGetValue() function.
  48:Drivers/STM32F4xx_HAL_Driver/Src/stm32f4xx_hal_adc_ex.c ****        (+) Stop the ADC peripheral using HAL_ADCEx_InjectedStop()
  49:Drivers/STM32F4xx_HAL_Driver/Src/stm32f4xx_hal_adc_ex.c ****   
  50:Drivers/STM32F4xx_HAL_Driver/Src/stm32f4xx_hal_adc_ex.c ****      *** Interrupt mode IO operation ***    
  51:Drivers/STM32F4xx_HAL_Driver/Src/stm32f4xx_hal_adc_ex.c ****      ===================================
  52:Drivers/STM32F4xx_HAL_Driver/Src/stm32f4xx_hal_adc_ex.c ****      [..]    
  53:Drivers/STM32F4xx_HAL_Driver/Src/stm32f4xx_hal_adc_ex.c ****        (+) Start the ADC peripheral using HAL_ADCEx_InjectedStart_IT() 
  54:Drivers/STM32F4xx_HAL_Driver/Src/stm32f4xx_hal_adc_ex.c ****        (+) Use HAL_ADC_IRQHandler() called under ADC_IRQHandler() Interrupt subroutine
  55:Drivers/STM32F4xx_HAL_Driver/Src/stm32f4xx_hal_adc_ex.c ****        (+) At ADC end of conversion HAL_ADCEx_InjectedConvCpltCallback() function is executed and u
  56:Drivers/STM32F4xx_HAL_Driver/Src/stm32f4xx_hal_adc_ex.c ****             add his own code by customization of function pointer HAL_ADCEx_InjectedConvCpltCallbac
  57:Drivers/STM32F4xx_HAL_Driver/Src/stm32f4xx_hal_adc_ex.c ****        (+) In case of ADC Error, HAL_ADCEx_InjectedErrorCallback() function is executed and user ca
  58:Drivers/STM32F4xx_HAL_Driver/Src/stm32f4xx_hal_adc_ex.c ****             add his own code by customization of function pointer HAL_ADCEx_InjectedErrorCallback
  59:Drivers/STM32F4xx_HAL_Driver/Src/stm32f4xx_hal_adc_ex.c ****        (+) Stop the ADC peripheral using HAL_ADCEx_InjectedStop_IT()
  60:Drivers/STM32F4xx_HAL_Driver/Src/stm32f4xx_hal_adc_ex.c ****        
  61:Drivers/STM32F4xx_HAL_Driver/Src/stm32f4xx_hal_adc_ex.c ****             
  62:Drivers/STM32F4xx_HAL_Driver/Src/stm32f4xx_hal_adc_ex.c ****      *** DMA mode IO operation ***    
  63:Drivers/STM32F4xx_HAL_Driver/Src/stm32f4xx_hal_adc_ex.c ****      ==============================
  64:Drivers/STM32F4xx_HAL_Driver/Src/stm32f4xx_hal_adc_ex.c ****      [..]    
  65:Drivers/STM32F4xx_HAL_Driver/Src/stm32f4xx_hal_adc_ex.c ****        (+) Start the ADC peripheral using HAL_ADCEx_InjectedStart_DMA(), at this stage the user spe
  66:Drivers/STM32F4xx_HAL_Driver/Src/stm32f4xx_hal_adc_ex.c ****            of data to be transferred at each end of conversion 
  67:Drivers/STM32F4xx_HAL_Driver/Src/stm32f4xx_hal_adc_ex.c ****        (+) At The end of data transfer ba HAL_ADCEx_InjectedConvCpltCallback() function is executed
  68:Drivers/STM32F4xx_HAL_Driver/Src/stm32f4xx_hal_adc_ex.c ****             add his own code by customization of function pointer HAL_ADCEx_InjectedConvCpltCallbac
  69:Drivers/STM32F4xx_HAL_Driver/Src/stm32f4xx_hal_adc_ex.c ****        (+) In case of transfer Error, HAL_ADCEx_InjectedErrorCallback() function is executed and us
  70:Drivers/STM32F4xx_HAL_Driver/Src/stm32f4xx_hal_adc_ex.c ****             add his own code by customization of function pointer HAL_ADCEx_InjectedErrorCallback
  71:Drivers/STM32F4xx_HAL_Driver/Src/stm32f4xx_hal_adc_ex.c ****         (+) Stop the ADC peripheral using HAL_ADCEx_InjectedStop_DMA()
  72:Drivers/STM32F4xx_HAL_Driver/Src/stm32f4xx_hal_adc_ex.c ****         
  73:Drivers/STM32F4xx_HAL_Driver/Src/stm32f4xx_hal_adc_ex.c ****      *** Multi mode ADCs Regular channels configuration ***
  74:Drivers/STM32F4xx_HAL_Driver/Src/stm32f4xx_hal_adc_ex.c ****      ======================================================
  75:Drivers/STM32F4xx_HAL_Driver/Src/stm32f4xx_hal_adc_ex.c ****      [..]        
  76:Drivers/STM32F4xx_HAL_Driver/Src/stm32f4xx_hal_adc_ex.c ****        (+) Select the Multi mode ADC regular channels features (dual or triple mode)  
  77:Drivers/STM32F4xx_HAL_Driver/Src/stm32f4xx_hal_adc_ex.c ****           and configure the DMA mode using HAL_ADCEx_MultiModeConfigChannel() functions. 
  78:Drivers/STM32F4xx_HAL_Driver/Src/stm32f4xx_hal_adc_ex.c ****        (+) Start the ADC peripheral using HAL_ADCEx_MultiModeStart_DMA(), at this stage the user sp
  79:Drivers/STM32F4xx_HAL_Driver/Src/stm32f4xx_hal_adc_ex.c ****            of data to be transferred at each end of conversion           
  80:Drivers/STM32F4xx_HAL_Driver/Src/stm32f4xx_hal_adc_ex.c ****        (+) Read the ADCs converted values using the HAL_ADCEx_MultiModeGetValue() function.
  81:Drivers/STM32F4xx_HAL_Driver/Src/stm32f4xx_hal_adc_ex.c ****   
  82:Drivers/STM32F4xx_HAL_Driver/Src/stm32f4xx_hal_adc_ex.c ****   
  83:Drivers/STM32F4xx_HAL_Driver/Src/stm32f4xx_hal_adc_ex.c ****     @endverbatim
  84:Drivers/STM32F4xx_HAL_Driver/Src/stm32f4xx_hal_adc_ex.c ****   ******************************************************************************
  85:Drivers/STM32F4xx_HAL_Driver/Src/stm32f4xx_hal_adc_ex.c ****   * @attention
  86:Drivers/STM32F4xx_HAL_Driver/Src/stm32f4xx_hal_adc_ex.c ****   *
  87:Drivers/STM32F4xx_HAL_Driver/Src/stm32f4xx_hal_adc_ex.c ****   * <h2><center>&copy; COPYRIGHT(c) 2017 STMicroelectronics</center></h2>
ARM GAS  /var/folders/ck/4xtm3skj1ssb0w4rn7_4q_gw0000gn/T//ccdOVP6q.s 			page 3


  88:Drivers/STM32F4xx_HAL_Driver/Src/stm32f4xx_hal_adc_ex.c ****   *
  89:Drivers/STM32F4xx_HAL_Driver/Src/stm32f4xx_hal_adc_ex.c ****   * Redistribution and use in source and binary forms, with or without modification,
  90:Drivers/STM32F4xx_HAL_Driver/Src/stm32f4xx_hal_adc_ex.c ****   * are permitted provided that the following conditions are met:
  91:Drivers/STM32F4xx_HAL_Driver/Src/stm32f4xx_hal_adc_ex.c ****   *   1. Redistributions of source code must retain the above copyright notice,
  92:Drivers/STM32F4xx_HAL_Driver/Src/stm32f4xx_hal_adc_ex.c ****   *      this list of conditions and the following disclaimer.
  93:Drivers/STM32F4xx_HAL_Driver/Src/stm32f4xx_hal_adc_ex.c ****   *   2. Redistributions in binary form must reproduce the above copyright notice,
  94:Drivers/STM32F4xx_HAL_Driver/Src/stm32f4xx_hal_adc_ex.c ****   *      this list of conditions and the following disclaimer in the documentation
  95:Drivers/STM32F4xx_HAL_Driver/Src/stm32f4xx_hal_adc_ex.c ****   *      and/or other materials provided with the distribution.
  96:Drivers/STM32F4xx_HAL_Driver/Src/stm32f4xx_hal_adc_ex.c ****   *   3. Neither the name of STMicroelectronics nor the names of its contributors
  97:Drivers/STM32F4xx_HAL_Driver/Src/stm32f4xx_hal_adc_ex.c ****   *      may be used to endorse or promote products derived from this software
  98:Drivers/STM32F4xx_HAL_Driver/Src/stm32f4xx_hal_adc_ex.c ****   *      without specific prior written permission.
  99:Drivers/STM32F4xx_HAL_Driver/Src/stm32f4xx_hal_adc_ex.c ****   *
 100:Drivers/STM32F4xx_HAL_Driver/Src/stm32f4xx_hal_adc_ex.c ****   * THIS SOFTWARE IS PROVIDED BY THE COPYRIGHT HOLDERS AND CONTRIBUTORS "AS IS"
 101:Drivers/STM32F4xx_HAL_Driver/Src/stm32f4xx_hal_adc_ex.c ****   * AND ANY EXPRESS OR IMPLIED WARRANTIES, INCLUDING, BUT NOT LIMITED TO, THE
 102:Drivers/STM32F4xx_HAL_Driver/Src/stm32f4xx_hal_adc_ex.c ****   * IMPLIED WARRANTIES OF MERCHANTABILITY AND FITNESS FOR A PARTICULAR PURPOSE ARE
 103:Drivers/STM32F4xx_HAL_Driver/Src/stm32f4xx_hal_adc_ex.c ****   * DISCLAIMED. IN NO EVENT SHALL THE COPYRIGHT HOLDER OR CONTRIBUTORS BE LIABLE
 104:Drivers/STM32F4xx_HAL_Driver/Src/stm32f4xx_hal_adc_ex.c ****   * FOR ANY DIRECT, INDIRECT, INCIDENTAL, SPECIAL, EXEMPLARY, OR CONSEQUENTIAL
 105:Drivers/STM32F4xx_HAL_Driver/Src/stm32f4xx_hal_adc_ex.c ****   * DAMAGES (INCLUDING, BUT NOT LIMITED TO, PROCUREMENT OF SUBSTITUTE GOODS OR
 106:Drivers/STM32F4xx_HAL_Driver/Src/stm32f4xx_hal_adc_ex.c ****   * SERVICES; LOSS OF USE, DATA, OR PROFITS; OR BUSINESS INTERRUPTION) HOWEVER
 107:Drivers/STM32F4xx_HAL_Driver/Src/stm32f4xx_hal_adc_ex.c ****   * CAUSED AND ON ANY THEORY OF LIABILITY, WHETHER IN CONTRACT, STRICT LIABILITY,
 108:Drivers/STM32F4xx_HAL_Driver/Src/stm32f4xx_hal_adc_ex.c ****   * OR TORT (INCLUDING NEGLIGENCE OR OTHERWISE) ARISING IN ANY WAY OUT OF THE USE
 109:Drivers/STM32F4xx_HAL_Driver/Src/stm32f4xx_hal_adc_ex.c ****   * OF THIS SOFTWARE, EVEN IF ADVISED OF THE POSSIBILITY OF SUCH DAMAGE.
 110:Drivers/STM32F4xx_HAL_Driver/Src/stm32f4xx_hal_adc_ex.c ****   *
 111:Drivers/STM32F4xx_HAL_Driver/Src/stm32f4xx_hal_adc_ex.c ****   ******************************************************************************
 112:Drivers/STM32F4xx_HAL_Driver/Src/stm32f4xx_hal_adc_ex.c ****   */ 
 113:Drivers/STM32F4xx_HAL_Driver/Src/stm32f4xx_hal_adc_ex.c **** 
 114:Drivers/STM32F4xx_HAL_Driver/Src/stm32f4xx_hal_adc_ex.c **** /* Includes ------------------------------------------------------------------*/
 115:Drivers/STM32F4xx_HAL_Driver/Src/stm32f4xx_hal_adc_ex.c **** #include "stm32f4xx_hal.h"
 116:Drivers/STM32F4xx_HAL_Driver/Src/stm32f4xx_hal_adc_ex.c **** 
 117:Drivers/STM32F4xx_HAL_Driver/Src/stm32f4xx_hal_adc_ex.c **** /** @addtogroup STM32F4xx_HAL_Driver
 118:Drivers/STM32F4xx_HAL_Driver/Src/stm32f4xx_hal_adc_ex.c ****   * @{
 119:Drivers/STM32F4xx_HAL_Driver/Src/stm32f4xx_hal_adc_ex.c ****   */
 120:Drivers/STM32F4xx_HAL_Driver/Src/stm32f4xx_hal_adc_ex.c **** 
 121:Drivers/STM32F4xx_HAL_Driver/Src/stm32f4xx_hal_adc_ex.c **** /** @defgroup ADCEx ADCEx
 122:Drivers/STM32F4xx_HAL_Driver/Src/stm32f4xx_hal_adc_ex.c ****   * @brief ADC Extended driver modules
 123:Drivers/STM32F4xx_HAL_Driver/Src/stm32f4xx_hal_adc_ex.c ****   * @{
 124:Drivers/STM32F4xx_HAL_Driver/Src/stm32f4xx_hal_adc_ex.c ****   */ 
 125:Drivers/STM32F4xx_HAL_Driver/Src/stm32f4xx_hal_adc_ex.c **** 
 126:Drivers/STM32F4xx_HAL_Driver/Src/stm32f4xx_hal_adc_ex.c **** #ifdef HAL_ADC_MODULE_ENABLED
 127:Drivers/STM32F4xx_HAL_Driver/Src/stm32f4xx_hal_adc_ex.c ****     
 128:Drivers/STM32F4xx_HAL_Driver/Src/stm32f4xx_hal_adc_ex.c **** /* Private typedef -----------------------------------------------------------*/
 129:Drivers/STM32F4xx_HAL_Driver/Src/stm32f4xx_hal_adc_ex.c **** /* Private define ------------------------------------------------------------*/ 
 130:Drivers/STM32F4xx_HAL_Driver/Src/stm32f4xx_hal_adc_ex.c **** /* Private macro -------------------------------------------------------------*/
 131:Drivers/STM32F4xx_HAL_Driver/Src/stm32f4xx_hal_adc_ex.c **** /* Private variables ---------------------------------------------------------*/
 132:Drivers/STM32F4xx_HAL_Driver/Src/stm32f4xx_hal_adc_ex.c **** /** @addtogroup ADCEx_Private_Functions
 133:Drivers/STM32F4xx_HAL_Driver/Src/stm32f4xx_hal_adc_ex.c ****   * @{
 134:Drivers/STM32F4xx_HAL_Driver/Src/stm32f4xx_hal_adc_ex.c ****   */
 135:Drivers/STM32F4xx_HAL_Driver/Src/stm32f4xx_hal_adc_ex.c **** /* Private function prototypes -----------------------------------------------*/
 136:Drivers/STM32F4xx_HAL_Driver/Src/stm32f4xx_hal_adc_ex.c **** static void ADC_MultiModeDMAConvCplt(DMA_HandleTypeDef *hdma);
 137:Drivers/STM32F4xx_HAL_Driver/Src/stm32f4xx_hal_adc_ex.c **** static void ADC_MultiModeDMAError(DMA_HandleTypeDef *hdma);
 138:Drivers/STM32F4xx_HAL_Driver/Src/stm32f4xx_hal_adc_ex.c **** static void ADC_MultiModeDMAHalfConvCplt(DMA_HandleTypeDef *hdma); 
 139:Drivers/STM32F4xx_HAL_Driver/Src/stm32f4xx_hal_adc_ex.c **** /**
 140:Drivers/STM32F4xx_HAL_Driver/Src/stm32f4xx_hal_adc_ex.c ****   * @}
 141:Drivers/STM32F4xx_HAL_Driver/Src/stm32f4xx_hal_adc_ex.c ****   */
 142:Drivers/STM32F4xx_HAL_Driver/Src/stm32f4xx_hal_adc_ex.c **** 
 143:Drivers/STM32F4xx_HAL_Driver/Src/stm32f4xx_hal_adc_ex.c **** /* Exported functions --------------------------------------------------------*/
 144:Drivers/STM32F4xx_HAL_Driver/Src/stm32f4xx_hal_adc_ex.c **** /** @defgroup ADCEx_Exported_Functions ADC Exported Functions
ARM GAS  /var/folders/ck/4xtm3skj1ssb0w4rn7_4q_gw0000gn/T//ccdOVP6q.s 			page 4


 145:Drivers/STM32F4xx_HAL_Driver/Src/stm32f4xx_hal_adc_ex.c ****   * @{
 146:Drivers/STM32F4xx_HAL_Driver/Src/stm32f4xx_hal_adc_ex.c ****   */
 147:Drivers/STM32F4xx_HAL_Driver/Src/stm32f4xx_hal_adc_ex.c **** 
 148:Drivers/STM32F4xx_HAL_Driver/Src/stm32f4xx_hal_adc_ex.c **** /** @defgroup ADCEx_Exported_Functions_Group1  Extended features functions 
 149:Drivers/STM32F4xx_HAL_Driver/Src/stm32f4xx_hal_adc_ex.c ****   *  @brief    Extended features functions  
 150:Drivers/STM32F4xx_HAL_Driver/Src/stm32f4xx_hal_adc_ex.c ****   *
 151:Drivers/STM32F4xx_HAL_Driver/Src/stm32f4xx_hal_adc_ex.c **** @verbatim   
 152:Drivers/STM32F4xx_HAL_Driver/Src/stm32f4xx_hal_adc_ex.c ****  ===============================================================================
 153:Drivers/STM32F4xx_HAL_Driver/Src/stm32f4xx_hal_adc_ex.c ****                  ##### Extended features functions #####
 154:Drivers/STM32F4xx_HAL_Driver/Src/stm32f4xx_hal_adc_ex.c ****  ===============================================================================  
 155:Drivers/STM32F4xx_HAL_Driver/Src/stm32f4xx_hal_adc_ex.c ****     [..]  This section provides functions allowing to:
 156:Drivers/STM32F4xx_HAL_Driver/Src/stm32f4xx_hal_adc_ex.c ****       (+) Start conversion of injected channel.
 157:Drivers/STM32F4xx_HAL_Driver/Src/stm32f4xx_hal_adc_ex.c ****       (+) Stop conversion of injected channel.
 158:Drivers/STM32F4xx_HAL_Driver/Src/stm32f4xx_hal_adc_ex.c ****       (+) Start multimode and enable DMA transfer.
 159:Drivers/STM32F4xx_HAL_Driver/Src/stm32f4xx_hal_adc_ex.c ****       (+) Stop multimode and disable DMA transfer.
 160:Drivers/STM32F4xx_HAL_Driver/Src/stm32f4xx_hal_adc_ex.c ****       (+) Get result of injected channel conversion.
 161:Drivers/STM32F4xx_HAL_Driver/Src/stm32f4xx_hal_adc_ex.c ****       (+) Get result of multimode conversion.
 162:Drivers/STM32F4xx_HAL_Driver/Src/stm32f4xx_hal_adc_ex.c ****       (+) Configure injected channels.
 163:Drivers/STM32F4xx_HAL_Driver/Src/stm32f4xx_hal_adc_ex.c ****       (+) Configure multimode.
 164:Drivers/STM32F4xx_HAL_Driver/Src/stm32f4xx_hal_adc_ex.c ****                
 165:Drivers/STM32F4xx_HAL_Driver/Src/stm32f4xx_hal_adc_ex.c **** @endverbatim
 166:Drivers/STM32F4xx_HAL_Driver/Src/stm32f4xx_hal_adc_ex.c ****   * @{
 167:Drivers/STM32F4xx_HAL_Driver/Src/stm32f4xx_hal_adc_ex.c ****   */
 168:Drivers/STM32F4xx_HAL_Driver/Src/stm32f4xx_hal_adc_ex.c **** 
 169:Drivers/STM32F4xx_HAL_Driver/Src/stm32f4xx_hal_adc_ex.c **** /**
 170:Drivers/STM32F4xx_HAL_Driver/Src/stm32f4xx_hal_adc_ex.c ****   * @brief  Enables the selected ADC software start conversion of the injected channels.
 171:Drivers/STM32F4xx_HAL_Driver/Src/stm32f4xx_hal_adc_ex.c ****   * @param  hadc pointer to a ADC_HandleTypeDef structure that contains
 172:Drivers/STM32F4xx_HAL_Driver/Src/stm32f4xx_hal_adc_ex.c ****   *         the configuration information for the specified ADC.
 173:Drivers/STM32F4xx_HAL_Driver/Src/stm32f4xx_hal_adc_ex.c ****   * @retval HAL status
 174:Drivers/STM32F4xx_HAL_Driver/Src/stm32f4xx_hal_adc_ex.c ****   */
 175:Drivers/STM32F4xx_HAL_Driver/Src/stm32f4xx_hal_adc_ex.c **** HAL_StatusTypeDef HAL_ADCEx_InjectedStart(ADC_HandleTypeDef* hadc)
 176:Drivers/STM32F4xx_HAL_Driver/Src/stm32f4xx_hal_adc_ex.c **** {
  29              		.loc 1 176 0
  30              		.cfi_startproc
  31              		@ args = 0, pretend = 0, frame = 24
  32              		@ frame_needed = 1, uses_anonymous_args = 0
  33              		@ link register save eliminated.
  34 0000 80B4     		push	{r7}
  35              	.LCFI0:
  36              		.cfi_def_cfa_offset 4
  37              		.cfi_offset 7, -4
  38 0002 87B0     		sub	sp, sp, #28
  39              	.LCFI1:
  40              		.cfi_def_cfa_offset 32
  41 0004 00AF     		add	r7, sp, #0
  42              	.LCFI2:
  43              		.cfi_def_cfa_register 7
  44 0006 7860     		str	r0, [r7, #4]
 177:Drivers/STM32F4xx_HAL_Driver/Src/stm32f4xx_hal_adc_ex.c ****   __IO uint32_t counter = 0U;
  45              		.loc 1 177 0
  46 0008 0023     		movs	r3, #0
  47 000a BB60     		str	r3, [r7, #8]
 178:Drivers/STM32F4xx_HAL_Driver/Src/stm32f4xx_hal_adc_ex.c ****   uint32_t tmp1 = 0U, tmp2 = 0U;
  48              		.loc 1 178 0
  49 000c 0023     		movs	r3, #0
  50 000e 7B61     		str	r3, [r7, #20]
  51 0010 0023     		movs	r3, #0
ARM GAS  /var/folders/ck/4xtm3skj1ssb0w4rn7_4q_gw0000gn/T//ccdOVP6q.s 			page 5


  52 0012 3B61     		str	r3, [r7, #16]
 179:Drivers/STM32F4xx_HAL_Driver/Src/stm32f4xx_hal_adc_ex.c ****   ADC_Common_TypeDef *tmpADC_Common;
 180:Drivers/STM32F4xx_HAL_Driver/Src/stm32f4xx_hal_adc_ex.c ****   
 181:Drivers/STM32F4xx_HAL_Driver/Src/stm32f4xx_hal_adc_ex.c ****   /* Process locked */
 182:Drivers/STM32F4xx_HAL_Driver/Src/stm32f4xx_hal_adc_ex.c ****   __HAL_LOCK(hadc);
  53              		.loc 1 182 0
  54 0014 7B68     		ldr	r3, [r7, #4]
  55 0016 93F83C30 		ldrb	r3, [r3, #60]	@ zero_extendqisi2
  56 001a 012B     		cmp	r3, #1
  57 001c 01D1     		bne	.L2
  58              		.loc 1 182 0 is_stmt 0 discriminator 1
  59 001e 0223     		movs	r3, #2
  60 0020 9DE0     		b	.L3
  61              	.L2:
  62              		.loc 1 182 0 discriminator 2
  63 0022 7B68     		ldr	r3, [r7, #4]
  64 0024 0122     		movs	r2, #1
  65 0026 83F83C20 		strb	r2, [r3, #60]
 183:Drivers/STM32F4xx_HAL_Driver/Src/stm32f4xx_hal_adc_ex.c ****   
 184:Drivers/STM32F4xx_HAL_Driver/Src/stm32f4xx_hal_adc_ex.c ****   /* Enable the ADC peripheral */
 185:Drivers/STM32F4xx_HAL_Driver/Src/stm32f4xx_hal_adc_ex.c ****   
 186:Drivers/STM32F4xx_HAL_Driver/Src/stm32f4xx_hal_adc_ex.c ****   /* Check if ADC peripheral is disabled in order to enable it and wait during 
 187:Drivers/STM32F4xx_HAL_Driver/Src/stm32f4xx_hal_adc_ex.c ****      Tstab time the ADC's stabilization */
 188:Drivers/STM32F4xx_HAL_Driver/Src/stm32f4xx_hal_adc_ex.c ****   if((hadc->Instance->CR2 & ADC_CR2_ADON) != ADC_CR2_ADON)
  66              		.loc 1 188 0 is_stmt 1 discriminator 2
  67 002a 7B68     		ldr	r3, [r7, #4]
  68 002c 1B68     		ldr	r3, [r3]
  69 002e 9B68     		ldr	r3, [r3, #8]
  70 0030 03F00103 		and	r3, r3, #1
  71 0034 002B     		cmp	r3, #0
  72 0036 18D1     		bne	.L4
 189:Drivers/STM32F4xx_HAL_Driver/Src/stm32f4xx_hal_adc_ex.c ****   {  
 190:Drivers/STM32F4xx_HAL_Driver/Src/stm32f4xx_hal_adc_ex.c ****     /* Enable the Peripheral */
 191:Drivers/STM32F4xx_HAL_Driver/Src/stm32f4xx_hal_adc_ex.c ****     __HAL_ADC_ENABLE(hadc);
  73              		.loc 1 191 0
  74 0038 7B68     		ldr	r3, [r7, #4]
  75 003a 1B68     		ldr	r3, [r3]
  76 003c 7A68     		ldr	r2, [r7, #4]
  77 003e 1268     		ldr	r2, [r2]
  78 0040 9268     		ldr	r2, [r2, #8]
  79 0042 42F00102 		orr	r2, r2, #1
  80 0046 9A60     		str	r2, [r3, #8]
 192:Drivers/STM32F4xx_HAL_Driver/Src/stm32f4xx_hal_adc_ex.c ****     
 193:Drivers/STM32F4xx_HAL_Driver/Src/stm32f4xx_hal_adc_ex.c ****     /* Delay for ADC stabilization time */
 194:Drivers/STM32F4xx_HAL_Driver/Src/stm32f4xx_hal_adc_ex.c ****     /* Compute number of CPU cycles to wait for */
 195:Drivers/STM32F4xx_HAL_Driver/Src/stm32f4xx_hal_adc_ex.c ****     counter = (ADC_STAB_DELAY_US * (SystemCoreClock / 1000000U));
  81              		.loc 1 195 0
  82 0048 484B     		ldr	r3, .L11
  83 004a 1B68     		ldr	r3, [r3]
  84 004c 484A     		ldr	r2, .L11+4
  85 004e A2FB0323 		umull	r2, r3, r2, r3
  86 0052 9A0C     		lsrs	r2, r3, #18
  87 0054 1346     		mov	r3, r2
  88 0056 5B00     		lsls	r3, r3, #1
  89 0058 1344     		add	r3, r3, r2
  90 005a BB60     		str	r3, [r7, #8]
 196:Drivers/STM32F4xx_HAL_Driver/Src/stm32f4xx_hal_adc_ex.c ****     while(counter != 0U)
ARM GAS  /var/folders/ck/4xtm3skj1ssb0w4rn7_4q_gw0000gn/T//ccdOVP6q.s 			page 6


  91              		.loc 1 196 0
  92 005c 02E0     		b	.L5
  93              	.L6:
 197:Drivers/STM32F4xx_HAL_Driver/Src/stm32f4xx_hal_adc_ex.c ****     {
 198:Drivers/STM32F4xx_HAL_Driver/Src/stm32f4xx_hal_adc_ex.c ****       counter--;
  94              		.loc 1 198 0
  95 005e BB68     		ldr	r3, [r7, #8]
  96 0060 013B     		subs	r3, r3, #1
  97 0062 BB60     		str	r3, [r7, #8]
  98              	.L5:
 196:Drivers/STM32F4xx_HAL_Driver/Src/stm32f4xx_hal_adc_ex.c ****     while(counter != 0U)
  99              		.loc 1 196 0
 100 0064 BB68     		ldr	r3, [r7, #8]
 101 0066 002B     		cmp	r3, #0
 102 0068 F9D1     		bne	.L6
 103              	.L4:
 199:Drivers/STM32F4xx_HAL_Driver/Src/stm32f4xx_hal_adc_ex.c ****     }
 200:Drivers/STM32F4xx_HAL_Driver/Src/stm32f4xx_hal_adc_ex.c ****   }
 201:Drivers/STM32F4xx_HAL_Driver/Src/stm32f4xx_hal_adc_ex.c ****   
 202:Drivers/STM32F4xx_HAL_Driver/Src/stm32f4xx_hal_adc_ex.c ****   /* Start conversion if ADC is effectively enabled */
 203:Drivers/STM32F4xx_HAL_Driver/Src/stm32f4xx_hal_adc_ex.c ****   if(HAL_IS_BIT_SET(hadc->Instance->CR2, ADC_CR2_ADON))
 104              		.loc 1 203 0
 105 006a 7B68     		ldr	r3, [r7, #4]
 106 006c 1B68     		ldr	r3, [r3]
 107 006e 9B68     		ldr	r3, [r3, #8]
 108 0070 03F00103 		and	r3, r3, #1
 109 0074 002B     		cmp	r3, #0
 110 0076 71D0     		beq	.L7
 204:Drivers/STM32F4xx_HAL_Driver/Src/stm32f4xx_hal_adc_ex.c ****   {
 205:Drivers/STM32F4xx_HAL_Driver/Src/stm32f4xx_hal_adc_ex.c ****     /* Set ADC state                                                          */
 206:Drivers/STM32F4xx_HAL_Driver/Src/stm32f4xx_hal_adc_ex.c ****     /* - Clear state bitfield related to injected group conversion results    */
 207:Drivers/STM32F4xx_HAL_Driver/Src/stm32f4xx_hal_adc_ex.c ****     /* - Set state bitfield related to injected operation                     */
 208:Drivers/STM32F4xx_HAL_Driver/Src/stm32f4xx_hal_adc_ex.c ****     ADC_STATE_CLR_SET(hadc->State,
 111              		.loc 1 208 0
 112 0078 7B68     		ldr	r3, [r7, #4]
 113 007a 1B6C     		ldr	r3, [r3, #64]
 114 007c 23F44053 		bic	r3, r3, #12288
 115 0080 23F00103 		bic	r3, r3, #1
 116 0084 43F48052 		orr	r2, r3, #4096
 117 0088 7B68     		ldr	r3, [r7, #4]
 118 008a 1A64     		str	r2, [r3, #64]
 209:Drivers/STM32F4xx_HAL_Driver/Src/stm32f4xx_hal_adc_ex.c ****                       HAL_ADC_STATE_READY | HAL_ADC_STATE_INJ_EOC,
 210:Drivers/STM32F4xx_HAL_Driver/Src/stm32f4xx_hal_adc_ex.c ****                       HAL_ADC_STATE_INJ_BUSY);
 211:Drivers/STM32F4xx_HAL_Driver/Src/stm32f4xx_hal_adc_ex.c ****     
 212:Drivers/STM32F4xx_HAL_Driver/Src/stm32f4xx_hal_adc_ex.c ****     /* Check if a regular conversion is ongoing */
 213:Drivers/STM32F4xx_HAL_Driver/Src/stm32f4xx_hal_adc_ex.c ****     /* Note: On this device, there is no ADC error code fields related to     */
 214:Drivers/STM32F4xx_HAL_Driver/Src/stm32f4xx_hal_adc_ex.c ****     /*       conversions on group injected only. In case of conversion on     */
 215:Drivers/STM32F4xx_HAL_Driver/Src/stm32f4xx_hal_adc_ex.c ****     /*       going on group regular, no error code is reset.                  */
 216:Drivers/STM32F4xx_HAL_Driver/Src/stm32f4xx_hal_adc_ex.c ****     if (HAL_IS_BIT_CLR(hadc->State, HAL_ADC_STATE_REG_BUSY))
 119              		.loc 1 216 0
 120 008c 7B68     		ldr	r3, [r7, #4]
 121 008e 1B6C     		ldr	r3, [r3, #64]
 122 0090 03F48073 		and	r3, r3, #256
 123 0094 002B     		cmp	r3, #0
 124 0096 02D1     		bne	.L8
 217:Drivers/STM32F4xx_HAL_Driver/Src/stm32f4xx_hal_adc_ex.c ****     {
 218:Drivers/STM32F4xx_HAL_Driver/Src/stm32f4xx_hal_adc_ex.c ****       /* Reset ADC all error code fields */
ARM GAS  /var/folders/ck/4xtm3skj1ssb0w4rn7_4q_gw0000gn/T//ccdOVP6q.s 			page 7


 219:Drivers/STM32F4xx_HAL_Driver/Src/stm32f4xx_hal_adc_ex.c ****       ADC_CLEAR_ERRORCODE(hadc);
 125              		.loc 1 219 0
 126 0098 7B68     		ldr	r3, [r7, #4]
 127 009a 0022     		movs	r2, #0
 128 009c 5A64     		str	r2, [r3, #68]
 129              	.L8:
 220:Drivers/STM32F4xx_HAL_Driver/Src/stm32f4xx_hal_adc_ex.c ****     }
 221:Drivers/STM32F4xx_HAL_Driver/Src/stm32f4xx_hal_adc_ex.c ****     
 222:Drivers/STM32F4xx_HAL_Driver/Src/stm32f4xx_hal_adc_ex.c ****     /* Process unlocked */
 223:Drivers/STM32F4xx_HAL_Driver/Src/stm32f4xx_hal_adc_ex.c ****     /* Unlock before starting ADC conversions: in case of potential           */
 224:Drivers/STM32F4xx_HAL_Driver/Src/stm32f4xx_hal_adc_ex.c ****     /* interruption, to let the process to ADC IRQ Handler.                   */
 225:Drivers/STM32F4xx_HAL_Driver/Src/stm32f4xx_hal_adc_ex.c ****     __HAL_UNLOCK(hadc);
 130              		.loc 1 225 0
 131 009e 7B68     		ldr	r3, [r7, #4]
 132 00a0 0022     		movs	r2, #0
 133 00a2 83F83C20 		strb	r2, [r3, #60]
 226:Drivers/STM32F4xx_HAL_Driver/Src/stm32f4xx_hal_adc_ex.c ****     
 227:Drivers/STM32F4xx_HAL_Driver/Src/stm32f4xx_hal_adc_ex.c ****     /* Clear injected group conversion flag */
 228:Drivers/STM32F4xx_HAL_Driver/Src/stm32f4xx_hal_adc_ex.c ****     /* (To ensure of no unknown state from potential previous ADC operations) */
 229:Drivers/STM32F4xx_HAL_Driver/Src/stm32f4xx_hal_adc_ex.c ****     __HAL_ADC_CLEAR_FLAG(hadc, ADC_FLAG_JEOC);
 134              		.loc 1 229 0
 135 00a6 7B68     		ldr	r3, [r7, #4]
 136 00a8 1B68     		ldr	r3, [r3]
 137 00aa 6FF00402 		mvn	r2, #4
 138 00ae 1A60     		str	r2, [r3]
 230:Drivers/STM32F4xx_HAL_Driver/Src/stm32f4xx_hal_adc_ex.c **** 
 231:Drivers/STM32F4xx_HAL_Driver/Src/stm32f4xx_hal_adc_ex.c ****     /* Pointer to the common control register to which is belonging hadc    */
 232:Drivers/STM32F4xx_HAL_Driver/Src/stm32f4xx_hal_adc_ex.c ****     /* (Depending on STM32F4 product, there may be up to 3 ADC and 1 common */
 233:Drivers/STM32F4xx_HAL_Driver/Src/stm32f4xx_hal_adc_ex.c ****     /* control register)                                                    */
 234:Drivers/STM32F4xx_HAL_Driver/Src/stm32f4xx_hal_adc_ex.c ****     tmpADC_Common = ADC_COMMON_REGISTER(hadc);
 139              		.loc 1 234 0
 140 00b0 304B     		ldr	r3, .L11+8
 141 00b2 FB60     		str	r3, [r7, #12]
 235:Drivers/STM32F4xx_HAL_Driver/Src/stm32f4xx_hal_adc_ex.c **** 
 236:Drivers/STM32F4xx_HAL_Driver/Src/stm32f4xx_hal_adc_ex.c ****     /* Check if Multimode enabled */
 237:Drivers/STM32F4xx_HAL_Driver/Src/stm32f4xx_hal_adc_ex.c ****     if(HAL_IS_BIT_CLR(tmpADC_Common->CCR, ADC_CCR_MULTI))
 142              		.loc 1 237 0
 143 00b4 FB68     		ldr	r3, [r7, #12]
 144 00b6 5B68     		ldr	r3, [r3, #4]
 145 00b8 03F01F03 		and	r3, r3, #31
 146 00bc 002B     		cmp	r3, #0
 147 00be 24D1     		bne	.L9
 238:Drivers/STM32F4xx_HAL_Driver/Src/stm32f4xx_hal_adc_ex.c ****     {
 239:Drivers/STM32F4xx_HAL_Driver/Src/stm32f4xx_hal_adc_ex.c ****       tmp1 = HAL_IS_BIT_CLR(hadc->Instance->CR2, ADC_CR2_JEXTEN);
 148              		.loc 1 239 0
 149 00c0 7B68     		ldr	r3, [r7, #4]
 150 00c2 1B68     		ldr	r3, [r3]
 151 00c4 9B68     		ldr	r3, [r3, #8]
 152 00c6 03F44013 		and	r3, r3, #3145728
 153 00ca 002B     		cmp	r3, #0
 154 00cc 0CBF     		ite	eq
 155 00ce 0123     		moveq	r3, #1
 156 00d0 0023     		movne	r3, #0
 157 00d2 DBB2     		uxtb	r3, r3
 158 00d4 7B61     		str	r3, [r7, #20]
 240:Drivers/STM32F4xx_HAL_Driver/Src/stm32f4xx_hal_adc_ex.c ****       tmp2 = HAL_IS_BIT_CLR(hadc->Instance->CR1, ADC_CR1_JAUTO);
 159              		.loc 1 240 0
ARM GAS  /var/folders/ck/4xtm3skj1ssb0w4rn7_4q_gw0000gn/T//ccdOVP6q.s 			page 8


 160 00d6 7B68     		ldr	r3, [r7, #4]
 161 00d8 1B68     		ldr	r3, [r3]
 162 00da 5B68     		ldr	r3, [r3, #4]
 163 00dc 03F48063 		and	r3, r3, #1024
 164 00e0 002B     		cmp	r3, #0
 165 00e2 0CBF     		ite	eq
 166 00e4 0123     		moveq	r3, #1
 167 00e6 0023     		movne	r3, #0
 168 00e8 DBB2     		uxtb	r3, r3
 169 00ea 3B61     		str	r3, [r7, #16]
 241:Drivers/STM32F4xx_HAL_Driver/Src/stm32f4xx_hal_adc_ex.c ****       if(tmp1 && tmp2)
 170              		.loc 1 241 0
 171 00ec 7B69     		ldr	r3, [r7, #20]
 172 00ee 002B     		cmp	r3, #0
 173 00f0 34D0     		beq	.L7
 174              		.loc 1 241 0 is_stmt 0 discriminator 1
 175 00f2 3B69     		ldr	r3, [r7, #16]
 176 00f4 002B     		cmp	r3, #0
 177 00f6 31D0     		beq	.L7
 242:Drivers/STM32F4xx_HAL_Driver/Src/stm32f4xx_hal_adc_ex.c ****       {
 243:Drivers/STM32F4xx_HAL_Driver/Src/stm32f4xx_hal_adc_ex.c ****         /* Enable the selected ADC software conversion for injected group */
 244:Drivers/STM32F4xx_HAL_Driver/Src/stm32f4xx_hal_adc_ex.c ****         hadc->Instance->CR2 |= ADC_CR2_JSWSTART;
 178              		.loc 1 244 0 is_stmt 1
 179 00f8 7B68     		ldr	r3, [r7, #4]
 180 00fa 1B68     		ldr	r3, [r3]
 181 00fc 7A68     		ldr	r2, [r7, #4]
 182 00fe 1268     		ldr	r2, [r2]
 183 0100 9268     		ldr	r2, [r2, #8]
 184 0102 42F48002 		orr	r2, r2, #4194304
 185 0106 9A60     		str	r2, [r3, #8]
 186 0108 28E0     		b	.L7
 187              	.L9:
 245:Drivers/STM32F4xx_HAL_Driver/Src/stm32f4xx_hal_adc_ex.c ****       }
 246:Drivers/STM32F4xx_HAL_Driver/Src/stm32f4xx_hal_adc_ex.c ****     }
 247:Drivers/STM32F4xx_HAL_Driver/Src/stm32f4xx_hal_adc_ex.c ****     else
 248:Drivers/STM32F4xx_HAL_Driver/Src/stm32f4xx_hal_adc_ex.c ****     {
 249:Drivers/STM32F4xx_HAL_Driver/Src/stm32f4xx_hal_adc_ex.c ****       tmp1 = HAL_IS_BIT_CLR(hadc->Instance->CR2, ADC_CR2_JEXTEN);
 188              		.loc 1 249 0
 189 010a 7B68     		ldr	r3, [r7, #4]
 190 010c 1B68     		ldr	r3, [r3]
 191 010e 9B68     		ldr	r3, [r3, #8]
 192 0110 03F44013 		and	r3, r3, #3145728
 193 0114 002B     		cmp	r3, #0
 194 0116 0CBF     		ite	eq
 195 0118 0123     		moveq	r3, #1
 196 011a 0023     		movne	r3, #0
 197 011c DBB2     		uxtb	r3, r3
 198 011e 7B61     		str	r3, [r7, #20]
 250:Drivers/STM32F4xx_HAL_Driver/Src/stm32f4xx_hal_adc_ex.c ****       tmp2 = HAL_IS_BIT_CLR(hadc->Instance->CR1, ADC_CR1_JAUTO);
 199              		.loc 1 250 0
 200 0120 7B68     		ldr	r3, [r7, #4]
 201 0122 1B68     		ldr	r3, [r3]
 202 0124 5B68     		ldr	r3, [r3, #4]
 203 0126 03F48063 		and	r3, r3, #1024
 204 012a 002B     		cmp	r3, #0
 205 012c 0CBF     		ite	eq
 206 012e 0123     		moveq	r3, #1
ARM GAS  /var/folders/ck/4xtm3skj1ssb0w4rn7_4q_gw0000gn/T//ccdOVP6q.s 			page 9


 207 0130 0023     		movne	r3, #0
 208 0132 DBB2     		uxtb	r3, r3
 209 0134 3B61     		str	r3, [r7, #16]
 251:Drivers/STM32F4xx_HAL_Driver/Src/stm32f4xx_hal_adc_ex.c ****       if((hadc->Instance == ADC1) && tmp1 && tmp2)  
 210              		.loc 1 251 0
 211 0136 7B68     		ldr	r3, [r7, #4]
 212 0138 1B68     		ldr	r3, [r3]
 213 013a 0F4A     		ldr	r2, .L11+12
 214 013c 9342     		cmp	r3, r2
 215 013e 0DD1     		bne	.L7
 216              		.loc 1 251 0 is_stmt 0 discriminator 1
 217 0140 7B69     		ldr	r3, [r7, #20]
 218 0142 002B     		cmp	r3, #0
 219 0144 0AD0     		beq	.L7
 220              		.loc 1 251 0 discriminator 2
 221 0146 3B69     		ldr	r3, [r7, #16]
 222 0148 002B     		cmp	r3, #0
 223 014a 07D0     		beq	.L7
 252:Drivers/STM32F4xx_HAL_Driver/Src/stm32f4xx_hal_adc_ex.c ****       {
 253:Drivers/STM32F4xx_HAL_Driver/Src/stm32f4xx_hal_adc_ex.c ****         /* Enable the selected ADC software conversion for injected group */
 254:Drivers/STM32F4xx_HAL_Driver/Src/stm32f4xx_hal_adc_ex.c ****         hadc->Instance->CR2 |= ADC_CR2_JSWSTART;
 224              		.loc 1 254 0 is_stmt 1
 225 014c 7B68     		ldr	r3, [r7, #4]
 226 014e 1B68     		ldr	r3, [r3]
 227 0150 7A68     		ldr	r2, [r7, #4]
 228 0152 1268     		ldr	r2, [r2]
 229 0154 9268     		ldr	r2, [r2, #8]
 230 0156 42F48002 		orr	r2, r2, #4194304
 231 015a 9A60     		str	r2, [r3, #8]
 232              	.L7:
 255:Drivers/STM32F4xx_HAL_Driver/Src/stm32f4xx_hal_adc_ex.c ****       }
 256:Drivers/STM32F4xx_HAL_Driver/Src/stm32f4xx_hal_adc_ex.c ****     }
 257:Drivers/STM32F4xx_HAL_Driver/Src/stm32f4xx_hal_adc_ex.c ****   }
 258:Drivers/STM32F4xx_HAL_Driver/Src/stm32f4xx_hal_adc_ex.c ****   
 259:Drivers/STM32F4xx_HAL_Driver/Src/stm32f4xx_hal_adc_ex.c ****   /* Return function status */
 260:Drivers/STM32F4xx_HAL_Driver/Src/stm32f4xx_hal_adc_ex.c ****   return HAL_OK;
 233              		.loc 1 260 0
 234 015c 0023     		movs	r3, #0
 235              	.L3:
 261:Drivers/STM32F4xx_HAL_Driver/Src/stm32f4xx_hal_adc_ex.c **** }
 236              		.loc 1 261 0
 237 015e 1846     		mov	r0, r3
 238 0160 1C37     		adds	r7, r7, #28
 239              	.LCFI3:
 240              		.cfi_def_cfa_offset 4
 241 0162 BD46     		mov	sp, r7
 242              	.LCFI4:
 243              		.cfi_def_cfa_register 13
 244              		@ sp needed
 245 0164 5DF8047B 		ldr	r7, [sp], #4
 246              	.LCFI5:
 247              		.cfi_restore 7
 248              		.cfi_def_cfa_offset 0
 249 0168 7047     		bx	lr
 250              	.L12:
 251 016a 00BF     		.align	2
 252              	.L11:
ARM GAS  /var/folders/ck/4xtm3skj1ssb0w4rn7_4q_gw0000gn/T//ccdOVP6q.s 			page 10


 253 016c 00000000 		.word	SystemCoreClock
 254 0170 83DE1B43 		.word	1125899907
 255 0174 00230140 		.word	1073816320
 256 0178 00200140 		.word	1073815552
 257              		.cfi_endproc
 258              	.LFE123:
 260              		.section	.text.HAL_ADCEx_InjectedStart_IT,"ax",%progbits
 261              		.align	2
 262              		.global	HAL_ADCEx_InjectedStart_IT
 263              		.thumb
 264              		.thumb_func
 266              	HAL_ADCEx_InjectedStart_IT:
 267              	.LFB124:
 262:Drivers/STM32F4xx_HAL_Driver/Src/stm32f4xx_hal_adc_ex.c **** 
 263:Drivers/STM32F4xx_HAL_Driver/Src/stm32f4xx_hal_adc_ex.c **** /**
 264:Drivers/STM32F4xx_HAL_Driver/Src/stm32f4xx_hal_adc_ex.c ****   * @brief  Enables the interrupt and starts ADC conversion of injected channels.
 265:Drivers/STM32F4xx_HAL_Driver/Src/stm32f4xx_hal_adc_ex.c ****   * @param  hadc pointer to a ADC_HandleTypeDef structure that contains
 266:Drivers/STM32F4xx_HAL_Driver/Src/stm32f4xx_hal_adc_ex.c ****   *         the configuration information for the specified ADC.
 267:Drivers/STM32F4xx_HAL_Driver/Src/stm32f4xx_hal_adc_ex.c ****   *
 268:Drivers/STM32F4xx_HAL_Driver/Src/stm32f4xx_hal_adc_ex.c ****   * @retval HAL status.
 269:Drivers/STM32F4xx_HAL_Driver/Src/stm32f4xx_hal_adc_ex.c ****   */
 270:Drivers/STM32F4xx_HAL_Driver/Src/stm32f4xx_hal_adc_ex.c **** HAL_StatusTypeDef HAL_ADCEx_InjectedStart_IT(ADC_HandleTypeDef* hadc)
 271:Drivers/STM32F4xx_HAL_Driver/Src/stm32f4xx_hal_adc_ex.c **** {
 268              		.loc 1 271 0
 269              		.cfi_startproc
 270              		@ args = 0, pretend = 0, frame = 24
 271              		@ frame_needed = 1, uses_anonymous_args = 0
 272              		@ link register save eliminated.
 273 0000 80B4     		push	{r7}
 274              	.LCFI6:
 275              		.cfi_def_cfa_offset 4
 276              		.cfi_offset 7, -4
 277 0002 87B0     		sub	sp, sp, #28
 278              	.LCFI7:
 279              		.cfi_def_cfa_offset 32
 280 0004 00AF     		add	r7, sp, #0
 281              	.LCFI8:
 282              		.cfi_def_cfa_register 7
 283 0006 7860     		str	r0, [r7, #4]
 272:Drivers/STM32F4xx_HAL_Driver/Src/stm32f4xx_hal_adc_ex.c ****   __IO uint32_t counter = 0U;
 284              		.loc 1 272 0
 285 0008 0023     		movs	r3, #0
 286 000a BB60     		str	r3, [r7, #8]
 273:Drivers/STM32F4xx_HAL_Driver/Src/stm32f4xx_hal_adc_ex.c ****   uint32_t tmp1 = 0U, tmp2 = 0U;
 287              		.loc 1 273 0
 288 000c 0023     		movs	r3, #0
 289 000e 7B61     		str	r3, [r7, #20]
 290 0010 0023     		movs	r3, #0
 291 0012 3B61     		str	r3, [r7, #16]
 274:Drivers/STM32F4xx_HAL_Driver/Src/stm32f4xx_hal_adc_ex.c ****   ADC_Common_TypeDef *tmpADC_Common;
 275:Drivers/STM32F4xx_HAL_Driver/Src/stm32f4xx_hal_adc_ex.c ****   
 276:Drivers/STM32F4xx_HAL_Driver/Src/stm32f4xx_hal_adc_ex.c ****   /* Process locked */
 277:Drivers/STM32F4xx_HAL_Driver/Src/stm32f4xx_hal_adc_ex.c ****   __HAL_LOCK(hadc);
 292              		.loc 1 277 0
 293 0014 7B68     		ldr	r3, [r7, #4]
 294 0016 93F83C30 		ldrb	r3, [r3, #60]	@ zero_extendqisi2
 295 001a 012B     		cmp	r3, #1
ARM GAS  /var/folders/ck/4xtm3skj1ssb0w4rn7_4q_gw0000gn/T//ccdOVP6q.s 			page 11


 296 001c 01D1     		bne	.L14
 297              		.loc 1 277 0 is_stmt 0 discriminator 1
 298 001e 0223     		movs	r3, #2
 299 0020 A5E0     		b	.L15
 300              	.L14:
 301              		.loc 1 277 0 discriminator 2
 302 0022 7B68     		ldr	r3, [r7, #4]
 303 0024 0122     		movs	r2, #1
 304 0026 83F83C20 		strb	r2, [r3, #60]
 278:Drivers/STM32F4xx_HAL_Driver/Src/stm32f4xx_hal_adc_ex.c ****   
 279:Drivers/STM32F4xx_HAL_Driver/Src/stm32f4xx_hal_adc_ex.c ****   /* Enable the ADC peripheral */
 280:Drivers/STM32F4xx_HAL_Driver/Src/stm32f4xx_hal_adc_ex.c ****   
 281:Drivers/STM32F4xx_HAL_Driver/Src/stm32f4xx_hal_adc_ex.c ****   /* Check if ADC peripheral is disabled in order to enable it and wait during 
 282:Drivers/STM32F4xx_HAL_Driver/Src/stm32f4xx_hal_adc_ex.c ****      Tstab time the ADC's stabilization */
 283:Drivers/STM32F4xx_HAL_Driver/Src/stm32f4xx_hal_adc_ex.c ****   if((hadc->Instance->CR2 & ADC_CR2_ADON) != ADC_CR2_ADON)
 305              		.loc 1 283 0 is_stmt 1 discriminator 2
 306 002a 7B68     		ldr	r3, [r7, #4]
 307 002c 1B68     		ldr	r3, [r3]
 308 002e 9B68     		ldr	r3, [r3, #8]
 309 0030 03F00103 		and	r3, r3, #1
 310 0034 002B     		cmp	r3, #0
 311 0036 18D1     		bne	.L16
 284:Drivers/STM32F4xx_HAL_Driver/Src/stm32f4xx_hal_adc_ex.c ****   {  
 285:Drivers/STM32F4xx_HAL_Driver/Src/stm32f4xx_hal_adc_ex.c ****     /* Enable the Peripheral */
 286:Drivers/STM32F4xx_HAL_Driver/Src/stm32f4xx_hal_adc_ex.c ****     __HAL_ADC_ENABLE(hadc);
 312              		.loc 1 286 0
 313 0038 7B68     		ldr	r3, [r7, #4]
 314 003a 1B68     		ldr	r3, [r3]
 315 003c 7A68     		ldr	r2, [r7, #4]
 316 003e 1268     		ldr	r2, [r2]
 317 0040 9268     		ldr	r2, [r2, #8]
 318 0042 42F00102 		orr	r2, r2, #1
 319 0046 9A60     		str	r2, [r3, #8]
 287:Drivers/STM32F4xx_HAL_Driver/Src/stm32f4xx_hal_adc_ex.c ****     
 288:Drivers/STM32F4xx_HAL_Driver/Src/stm32f4xx_hal_adc_ex.c ****     /* Delay for ADC stabilization time */
 289:Drivers/STM32F4xx_HAL_Driver/Src/stm32f4xx_hal_adc_ex.c ****     /* Compute number of CPU cycles to wait for */
 290:Drivers/STM32F4xx_HAL_Driver/Src/stm32f4xx_hal_adc_ex.c ****     counter = (ADC_STAB_DELAY_US * (SystemCoreClock / 1000000U));
 320              		.loc 1 290 0
 321 0048 4C4B     		ldr	r3, .L23
 322 004a 1B68     		ldr	r3, [r3]
 323 004c 4C4A     		ldr	r2, .L23+4
 324 004e A2FB0323 		umull	r2, r3, r2, r3
 325 0052 9A0C     		lsrs	r2, r3, #18
 326 0054 1346     		mov	r3, r2
 327 0056 5B00     		lsls	r3, r3, #1
 328 0058 1344     		add	r3, r3, r2
 329 005a BB60     		str	r3, [r7, #8]
 291:Drivers/STM32F4xx_HAL_Driver/Src/stm32f4xx_hal_adc_ex.c ****     while(counter != 0U)
 330              		.loc 1 291 0
 331 005c 02E0     		b	.L17
 332              	.L18:
 292:Drivers/STM32F4xx_HAL_Driver/Src/stm32f4xx_hal_adc_ex.c ****     {
 293:Drivers/STM32F4xx_HAL_Driver/Src/stm32f4xx_hal_adc_ex.c ****       counter--;
 333              		.loc 1 293 0
 334 005e BB68     		ldr	r3, [r7, #8]
 335 0060 013B     		subs	r3, r3, #1
 336 0062 BB60     		str	r3, [r7, #8]
ARM GAS  /var/folders/ck/4xtm3skj1ssb0w4rn7_4q_gw0000gn/T//ccdOVP6q.s 			page 12


 337              	.L17:
 291:Drivers/STM32F4xx_HAL_Driver/Src/stm32f4xx_hal_adc_ex.c ****     while(counter != 0U)
 338              		.loc 1 291 0
 339 0064 BB68     		ldr	r3, [r7, #8]
 340 0066 002B     		cmp	r3, #0
 341 0068 F9D1     		bne	.L18
 342              	.L16:
 294:Drivers/STM32F4xx_HAL_Driver/Src/stm32f4xx_hal_adc_ex.c ****     }
 295:Drivers/STM32F4xx_HAL_Driver/Src/stm32f4xx_hal_adc_ex.c ****   }
 296:Drivers/STM32F4xx_HAL_Driver/Src/stm32f4xx_hal_adc_ex.c ****   
 297:Drivers/STM32F4xx_HAL_Driver/Src/stm32f4xx_hal_adc_ex.c ****   /* Start conversion if ADC is effectively enabled */
 298:Drivers/STM32F4xx_HAL_Driver/Src/stm32f4xx_hal_adc_ex.c ****   if(HAL_IS_BIT_SET(hadc->Instance->CR2, ADC_CR2_ADON))
 343              		.loc 1 298 0
 344 006a 7B68     		ldr	r3, [r7, #4]
 345 006c 1B68     		ldr	r3, [r3]
 346 006e 9B68     		ldr	r3, [r3, #8]
 347 0070 03F00103 		and	r3, r3, #1
 348 0074 002B     		cmp	r3, #0
 349 0076 79D0     		beq	.L19
 299:Drivers/STM32F4xx_HAL_Driver/Src/stm32f4xx_hal_adc_ex.c ****   {
 300:Drivers/STM32F4xx_HAL_Driver/Src/stm32f4xx_hal_adc_ex.c ****     /* Set ADC state                                                          */
 301:Drivers/STM32F4xx_HAL_Driver/Src/stm32f4xx_hal_adc_ex.c ****     /* - Clear state bitfield related to injected group conversion results    */
 302:Drivers/STM32F4xx_HAL_Driver/Src/stm32f4xx_hal_adc_ex.c ****     /* - Set state bitfield related to injected operation                     */
 303:Drivers/STM32F4xx_HAL_Driver/Src/stm32f4xx_hal_adc_ex.c ****     ADC_STATE_CLR_SET(hadc->State,
 350              		.loc 1 303 0
 351 0078 7B68     		ldr	r3, [r7, #4]
 352 007a 1B6C     		ldr	r3, [r3, #64]
 353 007c 23F44053 		bic	r3, r3, #12288
 354 0080 23F00103 		bic	r3, r3, #1
 355 0084 43F48052 		orr	r2, r3, #4096
 356 0088 7B68     		ldr	r3, [r7, #4]
 357 008a 1A64     		str	r2, [r3, #64]
 304:Drivers/STM32F4xx_HAL_Driver/Src/stm32f4xx_hal_adc_ex.c ****                       HAL_ADC_STATE_READY | HAL_ADC_STATE_INJ_EOC,
 305:Drivers/STM32F4xx_HAL_Driver/Src/stm32f4xx_hal_adc_ex.c ****                       HAL_ADC_STATE_INJ_BUSY);
 306:Drivers/STM32F4xx_HAL_Driver/Src/stm32f4xx_hal_adc_ex.c ****     
 307:Drivers/STM32F4xx_HAL_Driver/Src/stm32f4xx_hal_adc_ex.c ****     /* Check if a regular conversion is ongoing */
 308:Drivers/STM32F4xx_HAL_Driver/Src/stm32f4xx_hal_adc_ex.c ****     /* Note: On this device, there is no ADC error code fields related to     */
 309:Drivers/STM32F4xx_HAL_Driver/Src/stm32f4xx_hal_adc_ex.c ****     /*       conversions on group injected only. In case of conversion on     */
 310:Drivers/STM32F4xx_HAL_Driver/Src/stm32f4xx_hal_adc_ex.c ****     /*       going on group regular, no error code is reset.                  */
 311:Drivers/STM32F4xx_HAL_Driver/Src/stm32f4xx_hal_adc_ex.c ****     if (HAL_IS_BIT_CLR(hadc->State, HAL_ADC_STATE_REG_BUSY))
 358              		.loc 1 311 0
 359 008c 7B68     		ldr	r3, [r7, #4]
 360 008e 1B6C     		ldr	r3, [r3, #64]
 361 0090 03F48073 		and	r3, r3, #256
 362 0094 002B     		cmp	r3, #0
 363 0096 02D1     		bne	.L20
 312:Drivers/STM32F4xx_HAL_Driver/Src/stm32f4xx_hal_adc_ex.c ****     {
 313:Drivers/STM32F4xx_HAL_Driver/Src/stm32f4xx_hal_adc_ex.c ****       /* Reset ADC all error code fields */
 314:Drivers/STM32F4xx_HAL_Driver/Src/stm32f4xx_hal_adc_ex.c ****       ADC_CLEAR_ERRORCODE(hadc);
 364              		.loc 1 314 0
 365 0098 7B68     		ldr	r3, [r7, #4]
 366 009a 0022     		movs	r2, #0
 367 009c 5A64     		str	r2, [r3, #68]
 368              	.L20:
 315:Drivers/STM32F4xx_HAL_Driver/Src/stm32f4xx_hal_adc_ex.c ****     }
 316:Drivers/STM32F4xx_HAL_Driver/Src/stm32f4xx_hal_adc_ex.c ****     
 317:Drivers/STM32F4xx_HAL_Driver/Src/stm32f4xx_hal_adc_ex.c ****     /* Process unlocked */
ARM GAS  /var/folders/ck/4xtm3skj1ssb0w4rn7_4q_gw0000gn/T//ccdOVP6q.s 			page 13


 318:Drivers/STM32F4xx_HAL_Driver/Src/stm32f4xx_hal_adc_ex.c ****     /* Unlock before starting ADC conversions: in case of potential           */
 319:Drivers/STM32F4xx_HAL_Driver/Src/stm32f4xx_hal_adc_ex.c ****     /* interruption, to let the process to ADC IRQ Handler.                   */
 320:Drivers/STM32F4xx_HAL_Driver/Src/stm32f4xx_hal_adc_ex.c ****     __HAL_UNLOCK(hadc);
 369              		.loc 1 320 0
 370 009e 7B68     		ldr	r3, [r7, #4]
 371 00a0 0022     		movs	r2, #0
 372 00a2 83F83C20 		strb	r2, [r3, #60]
 321:Drivers/STM32F4xx_HAL_Driver/Src/stm32f4xx_hal_adc_ex.c ****     
 322:Drivers/STM32F4xx_HAL_Driver/Src/stm32f4xx_hal_adc_ex.c ****     /* Clear injected group conversion flag */
 323:Drivers/STM32F4xx_HAL_Driver/Src/stm32f4xx_hal_adc_ex.c ****     /* (To ensure of no unknown state from potential previous ADC operations) */
 324:Drivers/STM32F4xx_HAL_Driver/Src/stm32f4xx_hal_adc_ex.c ****     __HAL_ADC_CLEAR_FLAG(hadc, ADC_FLAG_JEOC);
 373              		.loc 1 324 0
 374 00a6 7B68     		ldr	r3, [r7, #4]
 375 00a8 1B68     		ldr	r3, [r3]
 376 00aa 6FF00402 		mvn	r2, #4
 377 00ae 1A60     		str	r2, [r3]
 325:Drivers/STM32F4xx_HAL_Driver/Src/stm32f4xx_hal_adc_ex.c ****     
 326:Drivers/STM32F4xx_HAL_Driver/Src/stm32f4xx_hal_adc_ex.c ****     /* Enable end of conversion interrupt for injected channels */
 327:Drivers/STM32F4xx_HAL_Driver/Src/stm32f4xx_hal_adc_ex.c ****     __HAL_ADC_ENABLE_IT(hadc, ADC_IT_JEOC);
 378              		.loc 1 327 0
 379 00b0 7B68     		ldr	r3, [r7, #4]
 380 00b2 1B68     		ldr	r3, [r3]
 381 00b4 7A68     		ldr	r2, [r7, #4]
 382 00b6 1268     		ldr	r2, [r2]
 383 00b8 5268     		ldr	r2, [r2, #4]
 384 00ba 42F08002 		orr	r2, r2, #128
 385 00be 5A60     		str	r2, [r3, #4]
 328:Drivers/STM32F4xx_HAL_Driver/Src/stm32f4xx_hal_adc_ex.c **** 
 329:Drivers/STM32F4xx_HAL_Driver/Src/stm32f4xx_hal_adc_ex.c ****     /* Pointer to the common control register to which is belonging hadc    */
 330:Drivers/STM32F4xx_HAL_Driver/Src/stm32f4xx_hal_adc_ex.c ****     /* (Depending on STM32F4 product, there may be up to 3 ADC and 1 common */
 331:Drivers/STM32F4xx_HAL_Driver/Src/stm32f4xx_hal_adc_ex.c ****     /* control register)                                                    */
 332:Drivers/STM32F4xx_HAL_Driver/Src/stm32f4xx_hal_adc_ex.c ****     tmpADC_Common = ADC_COMMON_REGISTER(hadc);
 386              		.loc 1 332 0
 387 00c0 304B     		ldr	r3, .L23+8
 388 00c2 FB60     		str	r3, [r7, #12]
 333:Drivers/STM32F4xx_HAL_Driver/Src/stm32f4xx_hal_adc_ex.c ****     
 334:Drivers/STM32F4xx_HAL_Driver/Src/stm32f4xx_hal_adc_ex.c ****     /* Check if Multimode enabled */
 335:Drivers/STM32F4xx_HAL_Driver/Src/stm32f4xx_hal_adc_ex.c ****     if(HAL_IS_BIT_CLR(tmpADC_Common->CCR, ADC_CCR_MULTI))
 389              		.loc 1 335 0
 390 00c4 FB68     		ldr	r3, [r7, #12]
 391 00c6 5B68     		ldr	r3, [r3, #4]
 392 00c8 03F01F03 		and	r3, r3, #31
 393 00cc 002B     		cmp	r3, #0
 394 00ce 24D1     		bne	.L21
 336:Drivers/STM32F4xx_HAL_Driver/Src/stm32f4xx_hal_adc_ex.c ****     {
 337:Drivers/STM32F4xx_HAL_Driver/Src/stm32f4xx_hal_adc_ex.c ****       tmp1 = HAL_IS_BIT_CLR(hadc->Instance->CR2, ADC_CR2_JEXTEN);
 395              		.loc 1 337 0
 396 00d0 7B68     		ldr	r3, [r7, #4]
 397 00d2 1B68     		ldr	r3, [r3]
 398 00d4 9B68     		ldr	r3, [r3, #8]
 399 00d6 03F44013 		and	r3, r3, #3145728
 400 00da 002B     		cmp	r3, #0
 401 00dc 0CBF     		ite	eq
 402 00de 0123     		moveq	r3, #1
 403 00e0 0023     		movne	r3, #0
 404 00e2 DBB2     		uxtb	r3, r3
 405 00e4 7B61     		str	r3, [r7, #20]
ARM GAS  /var/folders/ck/4xtm3skj1ssb0w4rn7_4q_gw0000gn/T//ccdOVP6q.s 			page 14


 338:Drivers/STM32F4xx_HAL_Driver/Src/stm32f4xx_hal_adc_ex.c ****       tmp2 = HAL_IS_BIT_CLR(hadc->Instance->CR1, ADC_CR1_JAUTO);
 406              		.loc 1 338 0
 407 00e6 7B68     		ldr	r3, [r7, #4]
 408 00e8 1B68     		ldr	r3, [r3]
 409 00ea 5B68     		ldr	r3, [r3, #4]
 410 00ec 03F48063 		and	r3, r3, #1024
 411 00f0 002B     		cmp	r3, #0
 412 00f2 0CBF     		ite	eq
 413 00f4 0123     		moveq	r3, #1
 414 00f6 0023     		movne	r3, #0
 415 00f8 DBB2     		uxtb	r3, r3
 416 00fa 3B61     		str	r3, [r7, #16]
 339:Drivers/STM32F4xx_HAL_Driver/Src/stm32f4xx_hal_adc_ex.c ****       if(tmp1 && tmp2)
 417              		.loc 1 339 0
 418 00fc 7B69     		ldr	r3, [r7, #20]
 419 00fe 002B     		cmp	r3, #0
 420 0100 34D0     		beq	.L19
 421              		.loc 1 339 0 is_stmt 0 discriminator 1
 422 0102 3B69     		ldr	r3, [r7, #16]
 423 0104 002B     		cmp	r3, #0
 424 0106 31D0     		beq	.L19
 340:Drivers/STM32F4xx_HAL_Driver/Src/stm32f4xx_hal_adc_ex.c ****       {
 341:Drivers/STM32F4xx_HAL_Driver/Src/stm32f4xx_hal_adc_ex.c ****         /* Enable the selected ADC software conversion for injected group */
 342:Drivers/STM32F4xx_HAL_Driver/Src/stm32f4xx_hal_adc_ex.c ****         hadc->Instance->CR2 |= ADC_CR2_JSWSTART;
 425              		.loc 1 342 0 is_stmt 1
 426 0108 7B68     		ldr	r3, [r7, #4]
 427 010a 1B68     		ldr	r3, [r3]
 428 010c 7A68     		ldr	r2, [r7, #4]
 429 010e 1268     		ldr	r2, [r2]
 430 0110 9268     		ldr	r2, [r2, #8]
 431 0112 42F48002 		orr	r2, r2, #4194304
 432 0116 9A60     		str	r2, [r3, #8]
 433 0118 28E0     		b	.L19
 434              	.L21:
 343:Drivers/STM32F4xx_HAL_Driver/Src/stm32f4xx_hal_adc_ex.c ****       }
 344:Drivers/STM32F4xx_HAL_Driver/Src/stm32f4xx_hal_adc_ex.c ****     }
 345:Drivers/STM32F4xx_HAL_Driver/Src/stm32f4xx_hal_adc_ex.c ****     else
 346:Drivers/STM32F4xx_HAL_Driver/Src/stm32f4xx_hal_adc_ex.c ****     {
 347:Drivers/STM32F4xx_HAL_Driver/Src/stm32f4xx_hal_adc_ex.c ****       tmp1 = HAL_IS_BIT_CLR(hadc->Instance->CR2, ADC_CR2_JEXTEN);
 435              		.loc 1 347 0
 436 011a 7B68     		ldr	r3, [r7, #4]
 437 011c 1B68     		ldr	r3, [r3]
 438 011e 9B68     		ldr	r3, [r3, #8]
 439 0120 03F44013 		and	r3, r3, #3145728
 440 0124 002B     		cmp	r3, #0
 441 0126 0CBF     		ite	eq
 442 0128 0123     		moveq	r3, #1
 443 012a 0023     		movne	r3, #0
 444 012c DBB2     		uxtb	r3, r3
 445 012e 7B61     		str	r3, [r7, #20]
 348:Drivers/STM32F4xx_HAL_Driver/Src/stm32f4xx_hal_adc_ex.c ****       tmp2 = HAL_IS_BIT_CLR(hadc->Instance->CR1, ADC_CR1_JAUTO);
 446              		.loc 1 348 0
 447 0130 7B68     		ldr	r3, [r7, #4]
 448 0132 1B68     		ldr	r3, [r3]
 449 0134 5B68     		ldr	r3, [r3, #4]
 450 0136 03F48063 		and	r3, r3, #1024
 451 013a 002B     		cmp	r3, #0
ARM GAS  /var/folders/ck/4xtm3skj1ssb0w4rn7_4q_gw0000gn/T//ccdOVP6q.s 			page 15


 452 013c 0CBF     		ite	eq
 453 013e 0123     		moveq	r3, #1
 454 0140 0023     		movne	r3, #0
 455 0142 DBB2     		uxtb	r3, r3
 456 0144 3B61     		str	r3, [r7, #16]
 349:Drivers/STM32F4xx_HAL_Driver/Src/stm32f4xx_hal_adc_ex.c ****       if((hadc->Instance == ADC1) && tmp1 && tmp2)  
 457              		.loc 1 349 0
 458 0146 7B68     		ldr	r3, [r7, #4]
 459 0148 1B68     		ldr	r3, [r3]
 460 014a 0F4A     		ldr	r2, .L23+12
 461 014c 9342     		cmp	r3, r2
 462 014e 0DD1     		bne	.L19
 463              		.loc 1 349 0 is_stmt 0 discriminator 1
 464 0150 7B69     		ldr	r3, [r7, #20]
 465 0152 002B     		cmp	r3, #0
 466 0154 0AD0     		beq	.L19
 467              		.loc 1 349 0 discriminator 2
 468 0156 3B69     		ldr	r3, [r7, #16]
 469 0158 002B     		cmp	r3, #0
 470 015a 07D0     		beq	.L19
 350:Drivers/STM32F4xx_HAL_Driver/Src/stm32f4xx_hal_adc_ex.c ****       {
 351:Drivers/STM32F4xx_HAL_Driver/Src/stm32f4xx_hal_adc_ex.c ****         /* Enable the selected ADC software conversion for injected group */
 352:Drivers/STM32F4xx_HAL_Driver/Src/stm32f4xx_hal_adc_ex.c ****         hadc->Instance->CR2 |= ADC_CR2_JSWSTART;
 471              		.loc 1 352 0 is_stmt 1
 472 015c 7B68     		ldr	r3, [r7, #4]
 473 015e 1B68     		ldr	r3, [r3]
 474 0160 7A68     		ldr	r2, [r7, #4]
 475 0162 1268     		ldr	r2, [r2]
 476 0164 9268     		ldr	r2, [r2, #8]
 477 0166 42F48002 		orr	r2, r2, #4194304
 478 016a 9A60     		str	r2, [r3, #8]
 479              	.L19:
 353:Drivers/STM32F4xx_HAL_Driver/Src/stm32f4xx_hal_adc_ex.c ****       }
 354:Drivers/STM32F4xx_HAL_Driver/Src/stm32f4xx_hal_adc_ex.c ****     }
 355:Drivers/STM32F4xx_HAL_Driver/Src/stm32f4xx_hal_adc_ex.c ****   }
 356:Drivers/STM32F4xx_HAL_Driver/Src/stm32f4xx_hal_adc_ex.c ****   
 357:Drivers/STM32F4xx_HAL_Driver/Src/stm32f4xx_hal_adc_ex.c ****   /* Return function status */
 358:Drivers/STM32F4xx_HAL_Driver/Src/stm32f4xx_hal_adc_ex.c ****   return HAL_OK;
 480              		.loc 1 358 0
 481 016c 0023     		movs	r3, #0
 482              	.L15:
 359:Drivers/STM32F4xx_HAL_Driver/Src/stm32f4xx_hal_adc_ex.c **** }
 483              		.loc 1 359 0
 484 016e 1846     		mov	r0, r3
 485 0170 1C37     		adds	r7, r7, #28
 486              	.LCFI9:
 487              		.cfi_def_cfa_offset 4
 488 0172 BD46     		mov	sp, r7
 489              	.LCFI10:
 490              		.cfi_def_cfa_register 13
 491              		@ sp needed
 492 0174 5DF8047B 		ldr	r7, [sp], #4
 493              	.LCFI11:
 494              		.cfi_restore 7
 495              		.cfi_def_cfa_offset 0
 496 0178 7047     		bx	lr
 497              	.L24:
ARM GAS  /var/folders/ck/4xtm3skj1ssb0w4rn7_4q_gw0000gn/T//ccdOVP6q.s 			page 16


 498 017a 00BF     		.align	2
 499              	.L23:
 500 017c 00000000 		.word	SystemCoreClock
 501 0180 83DE1B43 		.word	1125899907
 502 0184 00230140 		.word	1073816320
 503 0188 00200140 		.word	1073815552
 504              		.cfi_endproc
 505              	.LFE124:
 507              		.section	.text.HAL_ADCEx_InjectedStop,"ax",%progbits
 508              		.align	2
 509              		.global	HAL_ADCEx_InjectedStop
 510              		.thumb
 511              		.thumb_func
 513              	HAL_ADCEx_InjectedStop:
 514              	.LFB125:
 360:Drivers/STM32F4xx_HAL_Driver/Src/stm32f4xx_hal_adc_ex.c **** 
 361:Drivers/STM32F4xx_HAL_Driver/Src/stm32f4xx_hal_adc_ex.c **** /**
 362:Drivers/STM32F4xx_HAL_Driver/Src/stm32f4xx_hal_adc_ex.c ****   * @brief  Stop conversion of injected channels. Disable ADC peripheral if
 363:Drivers/STM32F4xx_HAL_Driver/Src/stm32f4xx_hal_adc_ex.c ****   *         no regular conversion is on going.
 364:Drivers/STM32F4xx_HAL_Driver/Src/stm32f4xx_hal_adc_ex.c ****   * @note   If ADC must be disabled and if conversion is on going on 
 365:Drivers/STM32F4xx_HAL_Driver/Src/stm32f4xx_hal_adc_ex.c ****   *         regular group, function HAL_ADC_Stop must be used to stop both
 366:Drivers/STM32F4xx_HAL_Driver/Src/stm32f4xx_hal_adc_ex.c ****   *         injected and regular groups, and disable the ADC.
 367:Drivers/STM32F4xx_HAL_Driver/Src/stm32f4xx_hal_adc_ex.c ****   * @note   If injected group mode auto-injection is enabled,
 368:Drivers/STM32F4xx_HAL_Driver/Src/stm32f4xx_hal_adc_ex.c ****   *         function HAL_ADC_Stop must be used.
 369:Drivers/STM32F4xx_HAL_Driver/Src/stm32f4xx_hal_adc_ex.c ****   * @note   In case of auto-injection mode, HAL_ADC_Stop must be used.
 370:Drivers/STM32F4xx_HAL_Driver/Src/stm32f4xx_hal_adc_ex.c ****   * @param  hadc ADC handle
 371:Drivers/STM32F4xx_HAL_Driver/Src/stm32f4xx_hal_adc_ex.c ****   * @retval None
 372:Drivers/STM32F4xx_HAL_Driver/Src/stm32f4xx_hal_adc_ex.c ****   */
 373:Drivers/STM32F4xx_HAL_Driver/Src/stm32f4xx_hal_adc_ex.c **** HAL_StatusTypeDef HAL_ADCEx_InjectedStop(ADC_HandleTypeDef* hadc)
 374:Drivers/STM32F4xx_HAL_Driver/Src/stm32f4xx_hal_adc_ex.c **** {
 515              		.loc 1 374 0
 516              		.cfi_startproc
 517              		@ args = 0, pretend = 0, frame = 16
 518              		@ frame_needed = 1, uses_anonymous_args = 0
 519              		@ link register save eliminated.
 520 0000 80B4     		push	{r7}
 521              	.LCFI12:
 522              		.cfi_def_cfa_offset 4
 523              		.cfi_offset 7, -4
 524 0002 85B0     		sub	sp, sp, #20
 525              	.LCFI13:
 526              		.cfi_def_cfa_offset 24
 527 0004 00AF     		add	r7, sp, #0
 528              	.LCFI14:
 529              		.cfi_def_cfa_register 7
 530 0006 7860     		str	r0, [r7, #4]
 375:Drivers/STM32F4xx_HAL_Driver/Src/stm32f4xx_hal_adc_ex.c ****   HAL_StatusTypeDef tmp_hal_status = HAL_OK;
 531              		.loc 1 375 0
 532 0008 0023     		movs	r3, #0
 533 000a FB73     		strb	r3, [r7, #15]
 376:Drivers/STM32F4xx_HAL_Driver/Src/stm32f4xx_hal_adc_ex.c ****   
 377:Drivers/STM32F4xx_HAL_Driver/Src/stm32f4xx_hal_adc_ex.c ****   /* Check the parameters */
 378:Drivers/STM32F4xx_HAL_Driver/Src/stm32f4xx_hal_adc_ex.c ****   assert_param(IS_ADC_ALL_INSTANCE(hadc->Instance));
 379:Drivers/STM32F4xx_HAL_Driver/Src/stm32f4xx_hal_adc_ex.c **** 
 380:Drivers/STM32F4xx_HAL_Driver/Src/stm32f4xx_hal_adc_ex.c ****   /* Process locked */
 381:Drivers/STM32F4xx_HAL_Driver/Src/stm32f4xx_hal_adc_ex.c ****   __HAL_LOCK(hadc);
 534              		.loc 1 381 0
ARM GAS  /var/folders/ck/4xtm3skj1ssb0w4rn7_4q_gw0000gn/T//ccdOVP6q.s 			page 17


 535 000c 7B68     		ldr	r3, [r7, #4]
 536 000e 93F83C30 		ldrb	r3, [r3, #60]	@ zero_extendqisi2
 537 0012 012B     		cmp	r3, #1
 538 0014 01D1     		bne	.L26
 539              		.loc 1 381 0 is_stmt 0 discriminator 1
 540 0016 0223     		movs	r3, #2
 541 0018 38E0     		b	.L27
 542              	.L26:
 543              		.loc 1 381 0 discriminator 2
 544 001a 7B68     		ldr	r3, [r7, #4]
 545 001c 0122     		movs	r2, #1
 546 001e 83F83C20 		strb	r2, [r3, #60]
 382:Drivers/STM32F4xx_HAL_Driver/Src/stm32f4xx_hal_adc_ex.c ****     
 383:Drivers/STM32F4xx_HAL_Driver/Src/stm32f4xx_hal_adc_ex.c ****   /* Stop potential conversion and disable ADC peripheral                     */
 384:Drivers/STM32F4xx_HAL_Driver/Src/stm32f4xx_hal_adc_ex.c ****   /* Conditioned to:                                                          */
 385:Drivers/STM32F4xx_HAL_Driver/Src/stm32f4xx_hal_adc_ex.c ****   /* - No conversion on the other group (regular group) is intended to        */
 386:Drivers/STM32F4xx_HAL_Driver/Src/stm32f4xx_hal_adc_ex.c ****   /*   continue (injected and regular groups stop conversion and ADC disable  */
 387:Drivers/STM32F4xx_HAL_Driver/Src/stm32f4xx_hal_adc_ex.c ****   /*   are common)                                                            */
 388:Drivers/STM32F4xx_HAL_Driver/Src/stm32f4xx_hal_adc_ex.c ****   /* - In case of auto-injection mode, HAL_ADC_Stop must be used.             */
 389:Drivers/STM32F4xx_HAL_Driver/Src/stm32f4xx_hal_adc_ex.c ****   if(((hadc->State & HAL_ADC_STATE_REG_BUSY) == RESET)  &&
 547              		.loc 1 389 0 is_stmt 1 discriminator 2
 548 0022 7B68     		ldr	r3, [r7, #4]
 549 0024 1B6C     		ldr	r3, [r3, #64]
 550 0026 03F48073 		and	r3, r3, #256
 551 002a 002B     		cmp	r3, #0
 552 002c 21D1     		bne	.L28
 390:Drivers/STM32F4xx_HAL_Driver/Src/stm32f4xx_hal_adc_ex.c ****      HAL_IS_BIT_CLR(hadc->Instance->CR1, ADC_CR1_JAUTO)   )
 553              		.loc 1 390 0 discriminator 1
 554 002e 7B68     		ldr	r3, [r7, #4]
 555 0030 1B68     		ldr	r3, [r3]
 556 0032 5B68     		ldr	r3, [r3, #4]
 557 0034 03F48063 		and	r3, r3, #1024
 389:Drivers/STM32F4xx_HAL_Driver/Src/stm32f4xx_hal_adc_ex.c ****      HAL_IS_BIT_CLR(hadc->Instance->CR1, ADC_CR1_JAUTO)   )
 558              		.loc 1 389 0 discriminator 1
 559 0038 002B     		cmp	r3, #0
 560 003a 1AD1     		bne	.L28
 391:Drivers/STM32F4xx_HAL_Driver/Src/stm32f4xx_hal_adc_ex.c ****   {
 392:Drivers/STM32F4xx_HAL_Driver/Src/stm32f4xx_hal_adc_ex.c ****     /* Stop potential conversion on going, on regular and injected groups */
 393:Drivers/STM32F4xx_HAL_Driver/Src/stm32f4xx_hal_adc_ex.c ****     /* Disable ADC peripheral */
 394:Drivers/STM32F4xx_HAL_Driver/Src/stm32f4xx_hal_adc_ex.c ****     __HAL_ADC_DISABLE(hadc);
 561              		.loc 1 394 0
 562 003c 7B68     		ldr	r3, [r7, #4]
 563 003e 1B68     		ldr	r3, [r3]
 564 0040 7A68     		ldr	r2, [r7, #4]
 565 0042 1268     		ldr	r2, [r2]
 566 0044 9268     		ldr	r2, [r2, #8]
 567 0046 22F00102 		bic	r2, r2, #1
 568 004a 9A60     		str	r2, [r3, #8]
 395:Drivers/STM32F4xx_HAL_Driver/Src/stm32f4xx_hal_adc_ex.c ****     
 396:Drivers/STM32F4xx_HAL_Driver/Src/stm32f4xx_hal_adc_ex.c ****     /* Check if ADC is effectively disabled */
 397:Drivers/STM32F4xx_HAL_Driver/Src/stm32f4xx_hal_adc_ex.c ****     if(HAL_IS_BIT_CLR(hadc->Instance->CR2, ADC_CR2_ADON))
 569              		.loc 1 397 0
 570 004c 7B68     		ldr	r3, [r7, #4]
 571 004e 1B68     		ldr	r3, [r3]
 572 0050 9B68     		ldr	r3, [r3, #8]
 573 0052 03F00103 		and	r3, r3, #1
 574 0056 002B     		cmp	r3, #0
ARM GAS  /var/folders/ck/4xtm3skj1ssb0w4rn7_4q_gw0000gn/T//ccdOVP6q.s 			page 18


 575 0058 0AD1     		bne	.L29
 398:Drivers/STM32F4xx_HAL_Driver/Src/stm32f4xx_hal_adc_ex.c ****     {
 399:Drivers/STM32F4xx_HAL_Driver/Src/stm32f4xx_hal_adc_ex.c ****       /* Set ADC state */
 400:Drivers/STM32F4xx_HAL_Driver/Src/stm32f4xx_hal_adc_ex.c ****       ADC_STATE_CLR_SET(hadc->State,
 576              		.loc 1 400 0
 577 005a 7B68     		ldr	r3, [r7, #4]
 578 005c 1B6C     		ldr	r3, [r3, #64]
 579 005e 23F48853 		bic	r3, r3, #4352
 580 0062 23F00103 		bic	r3, r3, #1
 581 0066 43F00102 		orr	r2, r3, #1
 582 006a 7B68     		ldr	r3, [r7, #4]
 583 006c 1A64     		str	r2, [r3, #64]
 397:Drivers/STM32F4xx_HAL_Driver/Src/stm32f4xx_hal_adc_ex.c ****     {
 584              		.loc 1 397 0
 585 006e 08E0     		b	.L30
 586              	.L29:
 587 0070 07E0     		b	.L30
 588              	.L28:
 401:Drivers/STM32F4xx_HAL_Driver/Src/stm32f4xx_hal_adc_ex.c ****                         HAL_ADC_STATE_REG_BUSY | HAL_ADC_STATE_INJ_BUSY,
 402:Drivers/STM32F4xx_HAL_Driver/Src/stm32f4xx_hal_adc_ex.c ****                         HAL_ADC_STATE_READY);
 403:Drivers/STM32F4xx_HAL_Driver/Src/stm32f4xx_hal_adc_ex.c ****     }
 404:Drivers/STM32F4xx_HAL_Driver/Src/stm32f4xx_hal_adc_ex.c ****   }
 405:Drivers/STM32F4xx_HAL_Driver/Src/stm32f4xx_hal_adc_ex.c ****   else
 406:Drivers/STM32F4xx_HAL_Driver/Src/stm32f4xx_hal_adc_ex.c ****   {
 407:Drivers/STM32F4xx_HAL_Driver/Src/stm32f4xx_hal_adc_ex.c ****     /* Update ADC state machine to error */
 408:Drivers/STM32F4xx_HAL_Driver/Src/stm32f4xx_hal_adc_ex.c ****     SET_BIT(hadc->State, HAL_ADC_STATE_ERROR_CONFIG);
 589              		.loc 1 408 0
 590 0072 7B68     		ldr	r3, [r7, #4]
 591 0074 1B6C     		ldr	r3, [r3, #64]
 592 0076 43F02002 		orr	r2, r3, #32
 593 007a 7B68     		ldr	r3, [r7, #4]
 594 007c 1A64     		str	r2, [r3, #64]
 409:Drivers/STM32F4xx_HAL_Driver/Src/stm32f4xx_hal_adc_ex.c ****       
 410:Drivers/STM32F4xx_HAL_Driver/Src/stm32f4xx_hal_adc_ex.c ****     tmp_hal_status = HAL_ERROR;
 595              		.loc 1 410 0
 596 007e 0123     		movs	r3, #1
 597 0080 FB73     		strb	r3, [r7, #15]
 598              	.L30:
 411:Drivers/STM32F4xx_HAL_Driver/Src/stm32f4xx_hal_adc_ex.c ****   }
 412:Drivers/STM32F4xx_HAL_Driver/Src/stm32f4xx_hal_adc_ex.c ****   
 413:Drivers/STM32F4xx_HAL_Driver/Src/stm32f4xx_hal_adc_ex.c ****   /* Process unlocked */
 414:Drivers/STM32F4xx_HAL_Driver/Src/stm32f4xx_hal_adc_ex.c ****   __HAL_UNLOCK(hadc);
 599              		.loc 1 414 0
 600 0082 7B68     		ldr	r3, [r7, #4]
 601 0084 0022     		movs	r2, #0
 602 0086 83F83C20 		strb	r2, [r3, #60]
 415:Drivers/STM32F4xx_HAL_Driver/Src/stm32f4xx_hal_adc_ex.c ****   
 416:Drivers/STM32F4xx_HAL_Driver/Src/stm32f4xx_hal_adc_ex.c ****   /* Return function status */
 417:Drivers/STM32F4xx_HAL_Driver/Src/stm32f4xx_hal_adc_ex.c ****   return tmp_hal_status;
 603              		.loc 1 417 0
 604 008a FB7B     		ldrb	r3, [r7, #15]	@ zero_extendqisi2
 605              	.L27:
 418:Drivers/STM32F4xx_HAL_Driver/Src/stm32f4xx_hal_adc_ex.c **** }
 606              		.loc 1 418 0
 607 008c 1846     		mov	r0, r3
 608 008e 1437     		adds	r7, r7, #20
 609              	.LCFI15:
ARM GAS  /var/folders/ck/4xtm3skj1ssb0w4rn7_4q_gw0000gn/T//ccdOVP6q.s 			page 19


 610              		.cfi_def_cfa_offset 4
 611 0090 BD46     		mov	sp, r7
 612              	.LCFI16:
 613              		.cfi_def_cfa_register 13
 614              		@ sp needed
 615 0092 5DF8047B 		ldr	r7, [sp], #4
 616              	.LCFI17:
 617              		.cfi_restore 7
 618              		.cfi_def_cfa_offset 0
 619 0096 7047     		bx	lr
 620              		.cfi_endproc
 621              	.LFE125:
 623              		.section	.text.HAL_ADCEx_InjectedPollForConversion,"ax",%progbits
 624              		.align	2
 625              		.global	HAL_ADCEx_InjectedPollForConversion
 626              		.thumb
 627              		.thumb_func
 629              	HAL_ADCEx_InjectedPollForConversion:
 630              	.LFB126:
 419:Drivers/STM32F4xx_HAL_Driver/Src/stm32f4xx_hal_adc_ex.c **** 
 420:Drivers/STM32F4xx_HAL_Driver/Src/stm32f4xx_hal_adc_ex.c **** /**
 421:Drivers/STM32F4xx_HAL_Driver/Src/stm32f4xx_hal_adc_ex.c ****   * @brief  Poll for injected conversion complete
 422:Drivers/STM32F4xx_HAL_Driver/Src/stm32f4xx_hal_adc_ex.c ****   * @param  hadc pointer to a ADC_HandleTypeDef structure that contains
 423:Drivers/STM32F4xx_HAL_Driver/Src/stm32f4xx_hal_adc_ex.c ****   *         the configuration information for the specified ADC.
 424:Drivers/STM32F4xx_HAL_Driver/Src/stm32f4xx_hal_adc_ex.c ****   * @param  Timeout Timeout value in millisecond.  
 425:Drivers/STM32F4xx_HAL_Driver/Src/stm32f4xx_hal_adc_ex.c ****   * @retval HAL status
 426:Drivers/STM32F4xx_HAL_Driver/Src/stm32f4xx_hal_adc_ex.c ****   */
 427:Drivers/STM32F4xx_HAL_Driver/Src/stm32f4xx_hal_adc_ex.c **** HAL_StatusTypeDef HAL_ADCEx_InjectedPollForConversion(ADC_HandleTypeDef* hadc, uint32_t Timeout)
 428:Drivers/STM32F4xx_HAL_Driver/Src/stm32f4xx_hal_adc_ex.c **** {
 631              		.loc 1 428 0
 632              		.cfi_startproc
 633              		@ args = 0, pretend = 0, frame = 16
 634              		@ frame_needed = 1, uses_anonymous_args = 0
 635 0000 80B5     		push	{r7, lr}
 636              	.LCFI18:
 637              		.cfi_def_cfa_offset 8
 638              		.cfi_offset 7, -8
 639              		.cfi_offset 14, -4
 640 0002 84B0     		sub	sp, sp, #16
 641              	.LCFI19:
 642              		.cfi_def_cfa_offset 24
 643 0004 00AF     		add	r7, sp, #0
 644              	.LCFI20:
 645              		.cfi_def_cfa_register 7
 646 0006 7860     		str	r0, [r7, #4]
 647 0008 3960     		str	r1, [r7]
 429:Drivers/STM32F4xx_HAL_Driver/Src/stm32f4xx_hal_adc_ex.c ****   uint32_t tickstart = 0U;
 648              		.loc 1 429 0
 649 000a 0023     		movs	r3, #0
 650 000c FB60     		str	r3, [r7, #12]
 430:Drivers/STM32F4xx_HAL_Driver/Src/stm32f4xx_hal_adc_ex.c **** 
 431:Drivers/STM32F4xx_HAL_Driver/Src/stm32f4xx_hal_adc_ex.c ****   /* Get tick */ 
 432:Drivers/STM32F4xx_HAL_Driver/Src/stm32f4xx_hal_adc_ex.c ****   tickstart = HAL_GetTick();
 651              		.loc 1 432 0
 652 000e FFF7FEFF 		bl	HAL_GetTick
 653 0012 F860     		str	r0, [r7, #12]
 433:Drivers/STM32F4xx_HAL_Driver/Src/stm32f4xx_hal_adc_ex.c **** 
ARM GAS  /var/folders/ck/4xtm3skj1ssb0w4rn7_4q_gw0000gn/T//ccdOVP6q.s 			page 20


 434:Drivers/STM32F4xx_HAL_Driver/Src/stm32f4xx_hal_adc_ex.c ****   /* Check End of conversion flag */
 435:Drivers/STM32F4xx_HAL_Driver/Src/stm32f4xx_hal_adc_ex.c ****   while(!(__HAL_ADC_GET_FLAG(hadc, ADC_FLAG_JEOC)))
 654              		.loc 1 435 0
 655 0014 17E0     		b	.L32
 656              	.L35:
 436:Drivers/STM32F4xx_HAL_Driver/Src/stm32f4xx_hal_adc_ex.c ****   {
 437:Drivers/STM32F4xx_HAL_Driver/Src/stm32f4xx_hal_adc_ex.c ****     /* Check for the Timeout */
 438:Drivers/STM32F4xx_HAL_Driver/Src/stm32f4xx_hal_adc_ex.c ****     if(Timeout != HAL_MAX_DELAY)
 657              		.loc 1 438 0
 658 0016 3B68     		ldr	r3, [r7]
 659 0018 B3F1FF3F 		cmp	r3, #-1
 660 001c 13D0     		beq	.L32
 439:Drivers/STM32F4xx_HAL_Driver/Src/stm32f4xx_hal_adc_ex.c ****     {
 440:Drivers/STM32F4xx_HAL_Driver/Src/stm32f4xx_hal_adc_ex.c ****       if((Timeout == 0U)||((HAL_GetTick() - tickstart ) > Timeout))
 661              		.loc 1 440 0
 662 001e 3B68     		ldr	r3, [r7]
 663 0020 002B     		cmp	r3, #0
 664 0022 07D0     		beq	.L33
 665              		.loc 1 440 0 is_stmt 0 discriminator 1
 666 0024 FFF7FEFF 		bl	HAL_GetTick
 667 0028 0246     		mov	r2, r0
 668 002a FB68     		ldr	r3, [r7, #12]
 669 002c D21A     		subs	r2, r2, r3
 670 002e 3B68     		ldr	r3, [r7]
 671 0030 9A42     		cmp	r2, r3
 672 0032 08D9     		bls	.L32
 673              	.L33:
 441:Drivers/STM32F4xx_HAL_Driver/Src/stm32f4xx_hal_adc_ex.c ****       {
 442:Drivers/STM32F4xx_HAL_Driver/Src/stm32f4xx_hal_adc_ex.c ****         hadc->State= HAL_ADC_STATE_TIMEOUT;
 674              		.loc 1 442 0 is_stmt 1
 675 0034 7B68     		ldr	r3, [r7, #4]
 676 0036 0422     		movs	r2, #4
 677 0038 1A64     		str	r2, [r3, #64]
 443:Drivers/STM32F4xx_HAL_Driver/Src/stm32f4xx_hal_adc_ex.c ****         /* Process unlocked */
 444:Drivers/STM32F4xx_HAL_Driver/Src/stm32f4xx_hal_adc_ex.c ****         __HAL_UNLOCK(hadc);
 678              		.loc 1 444 0
 679 003a 7B68     		ldr	r3, [r7, #4]
 680 003c 0022     		movs	r2, #0
 681 003e 83F83C20 		strb	r2, [r3, #60]
 445:Drivers/STM32F4xx_HAL_Driver/Src/stm32f4xx_hal_adc_ex.c ****         return HAL_TIMEOUT;
 682              		.loc 1 445 0
 683 0042 0323     		movs	r3, #3
 684 0044 4BE0     		b	.L34
 685              	.L32:
 435:Drivers/STM32F4xx_HAL_Driver/Src/stm32f4xx_hal_adc_ex.c ****   {
 686              		.loc 1 435 0
 687 0046 7B68     		ldr	r3, [r7, #4]
 688 0048 1B68     		ldr	r3, [r3]
 689 004a 1B68     		ldr	r3, [r3]
 690 004c 03F00403 		and	r3, r3, #4
 691 0050 002B     		cmp	r3, #0
 692 0052 E0D0     		beq	.L35
 446:Drivers/STM32F4xx_HAL_Driver/Src/stm32f4xx_hal_adc_ex.c ****       }
 447:Drivers/STM32F4xx_HAL_Driver/Src/stm32f4xx_hal_adc_ex.c ****     }
 448:Drivers/STM32F4xx_HAL_Driver/Src/stm32f4xx_hal_adc_ex.c ****   }
 449:Drivers/STM32F4xx_HAL_Driver/Src/stm32f4xx_hal_adc_ex.c ****   
 450:Drivers/STM32F4xx_HAL_Driver/Src/stm32f4xx_hal_adc_ex.c ****   /* Clear injected group conversion flag */
ARM GAS  /var/folders/ck/4xtm3skj1ssb0w4rn7_4q_gw0000gn/T//ccdOVP6q.s 			page 21


 451:Drivers/STM32F4xx_HAL_Driver/Src/stm32f4xx_hal_adc_ex.c ****   __HAL_ADC_CLEAR_FLAG(hadc, ADC_FLAG_JSTRT | ADC_FLAG_JEOC);
 693              		.loc 1 451 0
 694 0054 7B68     		ldr	r3, [r7, #4]
 695 0056 1B68     		ldr	r3, [r3]
 696 0058 6FF00C02 		mvn	r2, #12
 697 005c 1A60     		str	r2, [r3]
 452:Drivers/STM32F4xx_HAL_Driver/Src/stm32f4xx_hal_adc_ex.c ****     
 453:Drivers/STM32F4xx_HAL_Driver/Src/stm32f4xx_hal_adc_ex.c ****   /* Update ADC state machine */
 454:Drivers/STM32F4xx_HAL_Driver/Src/stm32f4xx_hal_adc_ex.c ****   SET_BIT(hadc->State, HAL_ADC_STATE_INJ_EOC);
 698              		.loc 1 454 0
 699 005e 7B68     		ldr	r3, [r7, #4]
 700 0060 1B6C     		ldr	r3, [r3, #64]
 701 0062 43F40052 		orr	r2, r3, #8192
 702 0066 7B68     		ldr	r3, [r7, #4]
 703 0068 1A64     		str	r2, [r3, #64]
 455:Drivers/STM32F4xx_HAL_Driver/Src/stm32f4xx_hal_adc_ex.c ****   
 456:Drivers/STM32F4xx_HAL_Driver/Src/stm32f4xx_hal_adc_ex.c ****   /* Determine whether any further conversion upcoming on group injected      */
 457:Drivers/STM32F4xx_HAL_Driver/Src/stm32f4xx_hal_adc_ex.c ****   /* by external trigger, continuous mode or scan sequence on going.          */
 458:Drivers/STM32F4xx_HAL_Driver/Src/stm32f4xx_hal_adc_ex.c ****   /* Note: On STM32F4, there is no independent flag of end of sequence.       */
 459:Drivers/STM32F4xx_HAL_Driver/Src/stm32f4xx_hal_adc_ex.c ****   /*       The test of scan sequence on going is done either with scan        */
 460:Drivers/STM32F4xx_HAL_Driver/Src/stm32f4xx_hal_adc_ex.c ****   /*       sequence disabled or with end of conversion flag set to            */
 461:Drivers/STM32F4xx_HAL_Driver/Src/stm32f4xx_hal_adc_ex.c ****   /*       of end of sequence.                                                */
 462:Drivers/STM32F4xx_HAL_Driver/Src/stm32f4xx_hal_adc_ex.c ****   if(ADC_IS_SOFTWARE_START_INJECTED(hadc)                    &&
 704              		.loc 1 462 0
 705 006a 7B68     		ldr	r3, [r7, #4]
 706 006c 1B68     		ldr	r3, [r3]
 707 006e 9B68     		ldr	r3, [r3, #8]
 708 0070 03F44013 		and	r3, r3, #3145728
 709 0074 002B     		cmp	r3, #0
 710 0076 31D1     		bne	.L36
 463:Drivers/STM32F4xx_HAL_Driver/Src/stm32f4xx_hal_adc_ex.c ****      (HAL_IS_BIT_CLR(hadc->Instance->JSQR, ADC_JSQR_JL)  ||
 711              		.loc 1 463 0 discriminator 1
 712 0078 7B68     		ldr	r3, [r7, #4]
 713 007a 1B68     		ldr	r3, [r3]
 714 007c 9B6B     		ldr	r3, [r3, #56]
 715 007e 03F44013 		and	r3, r3, #3145728
 462:Drivers/STM32F4xx_HAL_Driver/Src/stm32f4xx_hal_adc_ex.c ****      (HAL_IS_BIT_CLR(hadc->Instance->JSQR, ADC_JSQR_JL)  ||
 716              		.loc 1 462 0 discriminator 1
 717 0082 002B     		cmp	r3, #0
 718 0084 06D0     		beq	.L37
 464:Drivers/STM32F4xx_HAL_Driver/Src/stm32f4xx_hal_adc_ex.c ****       HAL_IS_BIT_CLR(hadc->Instance->CR2, ADC_CR2_EOCS)    ) &&
 719              		.loc 1 464 0
 720 0086 7B68     		ldr	r3, [r7, #4]
 721 0088 1B68     		ldr	r3, [r3]
 722 008a 9B68     		ldr	r3, [r3, #8]
 723 008c 03F48063 		and	r3, r3, #1024
 463:Drivers/STM32F4xx_HAL_Driver/Src/stm32f4xx_hal_adc_ex.c ****      (HAL_IS_BIT_CLR(hadc->Instance->JSQR, ADC_JSQR_JL)  ||
 724              		.loc 1 463 0
 725 0090 002B     		cmp	r3, #0
 726 0092 23D1     		bne	.L36
 727              	.L37:
 465:Drivers/STM32F4xx_HAL_Driver/Src/stm32f4xx_hal_adc_ex.c ****      (HAL_IS_BIT_CLR(hadc->Instance->CR1, ADC_CR1_JAUTO) &&
 728              		.loc 1 465 0
 729 0094 7B68     		ldr	r3, [r7, #4]
 730 0096 1B68     		ldr	r3, [r3]
 731 0098 5B68     		ldr	r3, [r3, #4]
 732 009a 03F48063 		and	r3, r3, #1024
ARM GAS  /var/folders/ck/4xtm3skj1ssb0w4rn7_4q_gw0000gn/T//ccdOVP6q.s 			page 22


 464:Drivers/STM32F4xx_HAL_Driver/Src/stm32f4xx_hal_adc_ex.c ****       HAL_IS_BIT_CLR(hadc->Instance->CR2, ADC_CR2_EOCS)    ) &&
 733              		.loc 1 464 0
 734 009e 002B     		cmp	r3, #0
 735 00a0 1CD1     		bne	.L36
 466:Drivers/STM32F4xx_HAL_Driver/Src/stm32f4xx_hal_adc_ex.c ****       (ADC_IS_SOFTWARE_START_REGULAR(hadc)       &&
 736              		.loc 1 466 0
 737 00a2 7B68     		ldr	r3, [r7, #4]
 738 00a4 1B68     		ldr	r3, [r3]
 739 00a6 9B68     		ldr	r3, [r3, #8]
 740 00a8 03F04053 		and	r3, r3, #805306368
 465:Drivers/STM32F4xx_HAL_Driver/Src/stm32f4xx_hal_adc_ex.c ****      (HAL_IS_BIT_CLR(hadc->Instance->CR1, ADC_CR1_JAUTO) &&
 741              		.loc 1 465 0
 742 00ac 002B     		cmp	r3, #0
 743 00ae 15D1     		bne	.L36
 467:Drivers/STM32F4xx_HAL_Driver/Src/stm32f4xx_hal_adc_ex.c ****       (hadc->Init.ContinuousConvMode == DISABLE)   )       )   )
 744              		.loc 1 467 0
 745 00b0 7B68     		ldr	r3, [r7, #4]
 746 00b2 9B69     		ldr	r3, [r3, #24]
 466:Drivers/STM32F4xx_HAL_Driver/Src/stm32f4xx_hal_adc_ex.c ****       (ADC_IS_SOFTWARE_START_REGULAR(hadc)       &&
 747              		.loc 1 466 0
 748 00b4 002B     		cmp	r3, #0
 749 00b6 11D1     		bne	.L36
 468:Drivers/STM32F4xx_HAL_Driver/Src/stm32f4xx_hal_adc_ex.c ****   {
 469:Drivers/STM32F4xx_HAL_Driver/Src/stm32f4xx_hal_adc_ex.c ****     /* Set ADC state */
 470:Drivers/STM32F4xx_HAL_Driver/Src/stm32f4xx_hal_adc_ex.c ****     CLEAR_BIT(hadc->State, HAL_ADC_STATE_INJ_BUSY);
 750              		.loc 1 470 0
 751 00b8 7B68     		ldr	r3, [r7, #4]
 752 00ba 1B6C     		ldr	r3, [r3, #64]
 753 00bc 23F48052 		bic	r2, r3, #4096
 754 00c0 7B68     		ldr	r3, [r7, #4]
 755 00c2 1A64     		str	r2, [r3, #64]
 471:Drivers/STM32F4xx_HAL_Driver/Src/stm32f4xx_hal_adc_ex.c ****     
 472:Drivers/STM32F4xx_HAL_Driver/Src/stm32f4xx_hal_adc_ex.c ****     if (HAL_IS_BIT_CLR(hadc->State, HAL_ADC_STATE_REG_BUSY))
 756              		.loc 1 472 0
 757 00c4 7B68     		ldr	r3, [r7, #4]
 758 00c6 1B6C     		ldr	r3, [r3, #64]
 759 00c8 03F48073 		and	r3, r3, #256
 760 00cc 002B     		cmp	r3, #0
 761 00ce 05D1     		bne	.L36
 473:Drivers/STM32F4xx_HAL_Driver/Src/stm32f4xx_hal_adc_ex.c ****     { 
 474:Drivers/STM32F4xx_HAL_Driver/Src/stm32f4xx_hal_adc_ex.c ****       SET_BIT(hadc->State, HAL_ADC_STATE_READY);
 762              		.loc 1 474 0
 763 00d0 7B68     		ldr	r3, [r7, #4]
 764 00d2 1B6C     		ldr	r3, [r3, #64]
 765 00d4 43F00102 		orr	r2, r3, #1
 766 00d8 7B68     		ldr	r3, [r7, #4]
 767 00da 1A64     		str	r2, [r3, #64]
 768              	.L36:
 475:Drivers/STM32F4xx_HAL_Driver/Src/stm32f4xx_hal_adc_ex.c ****     }
 476:Drivers/STM32F4xx_HAL_Driver/Src/stm32f4xx_hal_adc_ex.c ****   }
 477:Drivers/STM32F4xx_HAL_Driver/Src/stm32f4xx_hal_adc_ex.c ****   
 478:Drivers/STM32F4xx_HAL_Driver/Src/stm32f4xx_hal_adc_ex.c ****   /* Return ADC state */
 479:Drivers/STM32F4xx_HAL_Driver/Src/stm32f4xx_hal_adc_ex.c ****   return HAL_OK;
 769              		.loc 1 479 0
 770 00dc 0023     		movs	r3, #0
 771              	.L34:
 480:Drivers/STM32F4xx_HAL_Driver/Src/stm32f4xx_hal_adc_ex.c **** }      
ARM GAS  /var/folders/ck/4xtm3skj1ssb0w4rn7_4q_gw0000gn/T//ccdOVP6q.s 			page 23


 772              		.loc 1 480 0
 773 00de 1846     		mov	r0, r3
 774 00e0 1037     		adds	r7, r7, #16
 775              	.LCFI21:
 776              		.cfi_def_cfa_offset 8
 777 00e2 BD46     		mov	sp, r7
 778              	.LCFI22:
 779              		.cfi_def_cfa_register 13
 780              		@ sp needed
 781 00e4 80BD     		pop	{r7, pc}
 782              		.cfi_endproc
 783              	.LFE126:
 785 00e6 00BF     		.section	.text.HAL_ADCEx_InjectedStop_IT,"ax",%progbits
 786              		.align	2
 787              		.global	HAL_ADCEx_InjectedStop_IT
 788              		.thumb
 789              		.thumb_func
 791              	HAL_ADCEx_InjectedStop_IT:
 792              	.LFB127:
 481:Drivers/STM32F4xx_HAL_Driver/Src/stm32f4xx_hal_adc_ex.c ****   
 482:Drivers/STM32F4xx_HAL_Driver/Src/stm32f4xx_hal_adc_ex.c **** /**
 483:Drivers/STM32F4xx_HAL_Driver/Src/stm32f4xx_hal_adc_ex.c ****   * @brief  Stop conversion of injected channels, disable interruption of 
 484:Drivers/STM32F4xx_HAL_Driver/Src/stm32f4xx_hal_adc_ex.c ****   *         end-of-conversion. Disable ADC peripheral if no regular conversion
 485:Drivers/STM32F4xx_HAL_Driver/Src/stm32f4xx_hal_adc_ex.c ****   *         is on going.
 486:Drivers/STM32F4xx_HAL_Driver/Src/stm32f4xx_hal_adc_ex.c ****   * @note   If ADC must be disabled and if conversion is on going on 
 487:Drivers/STM32F4xx_HAL_Driver/Src/stm32f4xx_hal_adc_ex.c ****   *         regular group, function HAL_ADC_Stop must be used to stop both
 488:Drivers/STM32F4xx_HAL_Driver/Src/stm32f4xx_hal_adc_ex.c ****   *         injected and regular groups, and disable the ADC.
 489:Drivers/STM32F4xx_HAL_Driver/Src/stm32f4xx_hal_adc_ex.c ****   * @note   If injected group mode auto-injection is enabled,
 490:Drivers/STM32F4xx_HAL_Driver/Src/stm32f4xx_hal_adc_ex.c ****   *         function HAL_ADC_Stop must be used.
 491:Drivers/STM32F4xx_HAL_Driver/Src/stm32f4xx_hal_adc_ex.c ****   * @param  hadc ADC handle
 492:Drivers/STM32F4xx_HAL_Driver/Src/stm32f4xx_hal_adc_ex.c ****   * @retval None
 493:Drivers/STM32F4xx_HAL_Driver/Src/stm32f4xx_hal_adc_ex.c ****   */
 494:Drivers/STM32F4xx_HAL_Driver/Src/stm32f4xx_hal_adc_ex.c **** HAL_StatusTypeDef HAL_ADCEx_InjectedStop_IT(ADC_HandleTypeDef* hadc)
 495:Drivers/STM32F4xx_HAL_Driver/Src/stm32f4xx_hal_adc_ex.c **** {
 793              		.loc 1 495 0
 794              		.cfi_startproc
 795              		@ args = 0, pretend = 0, frame = 16
 796              		@ frame_needed = 1, uses_anonymous_args = 0
 797              		@ link register save eliminated.
 798 0000 80B4     		push	{r7}
 799              	.LCFI23:
 800              		.cfi_def_cfa_offset 4
 801              		.cfi_offset 7, -4
 802 0002 85B0     		sub	sp, sp, #20
 803              	.LCFI24:
 804              		.cfi_def_cfa_offset 24
 805 0004 00AF     		add	r7, sp, #0
 806              	.LCFI25:
 807              		.cfi_def_cfa_register 7
 808 0006 7860     		str	r0, [r7, #4]
 496:Drivers/STM32F4xx_HAL_Driver/Src/stm32f4xx_hal_adc_ex.c ****   HAL_StatusTypeDef tmp_hal_status = HAL_OK;
 809              		.loc 1 496 0
 810 0008 0023     		movs	r3, #0
 811 000a FB73     		strb	r3, [r7, #15]
 497:Drivers/STM32F4xx_HAL_Driver/Src/stm32f4xx_hal_adc_ex.c ****   
 498:Drivers/STM32F4xx_HAL_Driver/Src/stm32f4xx_hal_adc_ex.c ****   /* Check the parameters */
 499:Drivers/STM32F4xx_HAL_Driver/Src/stm32f4xx_hal_adc_ex.c ****   assert_param(IS_ADC_ALL_INSTANCE(hadc->Instance));
ARM GAS  /var/folders/ck/4xtm3skj1ssb0w4rn7_4q_gw0000gn/T//ccdOVP6q.s 			page 24


 500:Drivers/STM32F4xx_HAL_Driver/Src/stm32f4xx_hal_adc_ex.c **** 
 501:Drivers/STM32F4xx_HAL_Driver/Src/stm32f4xx_hal_adc_ex.c ****   /* Process locked */
 502:Drivers/STM32F4xx_HAL_Driver/Src/stm32f4xx_hal_adc_ex.c ****   __HAL_LOCK(hadc);
 812              		.loc 1 502 0
 813 000c 7B68     		ldr	r3, [r7, #4]
 814 000e 93F83C30 		ldrb	r3, [r3, #60]	@ zero_extendqisi2
 815 0012 012B     		cmp	r3, #1
 816 0014 01D1     		bne	.L39
 817              		.loc 1 502 0 is_stmt 0 discriminator 1
 818 0016 0223     		movs	r3, #2
 819 0018 40E0     		b	.L40
 820              	.L39:
 821              		.loc 1 502 0 discriminator 2
 822 001a 7B68     		ldr	r3, [r7, #4]
 823 001c 0122     		movs	r2, #1
 824 001e 83F83C20 		strb	r2, [r3, #60]
 503:Drivers/STM32F4xx_HAL_Driver/Src/stm32f4xx_hal_adc_ex.c ****     
 504:Drivers/STM32F4xx_HAL_Driver/Src/stm32f4xx_hal_adc_ex.c ****   /* Stop potential conversion and disable ADC peripheral                     */
 505:Drivers/STM32F4xx_HAL_Driver/Src/stm32f4xx_hal_adc_ex.c ****   /* Conditioned to:                                                          */
 506:Drivers/STM32F4xx_HAL_Driver/Src/stm32f4xx_hal_adc_ex.c ****   /* - No conversion on the other group (regular group) is intended to        */
 507:Drivers/STM32F4xx_HAL_Driver/Src/stm32f4xx_hal_adc_ex.c ****   /*   continue (injected and regular groups stop conversion and ADC disable  */
 508:Drivers/STM32F4xx_HAL_Driver/Src/stm32f4xx_hal_adc_ex.c ****   /*   are common)                                                            */
 509:Drivers/STM32F4xx_HAL_Driver/Src/stm32f4xx_hal_adc_ex.c ****   /* - In case of auto-injection mode, HAL_ADC_Stop must be used.             */ 
 510:Drivers/STM32F4xx_HAL_Driver/Src/stm32f4xx_hal_adc_ex.c ****   if(((hadc->State & HAL_ADC_STATE_REG_BUSY) == RESET)  &&
 825              		.loc 1 510 0 is_stmt 1 discriminator 2
 826 0022 7B68     		ldr	r3, [r7, #4]
 827 0024 1B6C     		ldr	r3, [r3, #64]
 828 0026 03F48073 		and	r3, r3, #256
 829 002a 002B     		cmp	r3, #0
 830 002c 29D1     		bne	.L41
 511:Drivers/STM32F4xx_HAL_Driver/Src/stm32f4xx_hal_adc_ex.c ****      HAL_IS_BIT_CLR(hadc->Instance->CR1, ADC_CR1_JAUTO)   )
 831              		.loc 1 511 0 discriminator 1
 832 002e 7B68     		ldr	r3, [r7, #4]
 833 0030 1B68     		ldr	r3, [r3]
 834 0032 5B68     		ldr	r3, [r3, #4]
 835 0034 03F48063 		and	r3, r3, #1024
 510:Drivers/STM32F4xx_HAL_Driver/Src/stm32f4xx_hal_adc_ex.c ****      HAL_IS_BIT_CLR(hadc->Instance->CR1, ADC_CR1_JAUTO)   )
 836              		.loc 1 510 0 discriminator 1
 837 0038 002B     		cmp	r3, #0
 838 003a 22D1     		bne	.L41
 512:Drivers/STM32F4xx_HAL_Driver/Src/stm32f4xx_hal_adc_ex.c ****   {
 513:Drivers/STM32F4xx_HAL_Driver/Src/stm32f4xx_hal_adc_ex.c ****     /* Stop potential conversion on going, on regular and injected groups */
 514:Drivers/STM32F4xx_HAL_Driver/Src/stm32f4xx_hal_adc_ex.c ****     /* Disable ADC peripheral */
 515:Drivers/STM32F4xx_HAL_Driver/Src/stm32f4xx_hal_adc_ex.c ****     __HAL_ADC_DISABLE(hadc);
 839              		.loc 1 515 0
 840 003c 7B68     		ldr	r3, [r7, #4]
 841 003e 1B68     		ldr	r3, [r3]
 842 0040 7A68     		ldr	r2, [r7, #4]
 843 0042 1268     		ldr	r2, [r2]
 844 0044 9268     		ldr	r2, [r2, #8]
 845 0046 22F00102 		bic	r2, r2, #1
 846 004a 9A60     		str	r2, [r3, #8]
 516:Drivers/STM32F4xx_HAL_Driver/Src/stm32f4xx_hal_adc_ex.c ****     
 517:Drivers/STM32F4xx_HAL_Driver/Src/stm32f4xx_hal_adc_ex.c ****     /* Check if ADC is effectively disabled */
 518:Drivers/STM32F4xx_HAL_Driver/Src/stm32f4xx_hal_adc_ex.c ****     if(HAL_IS_BIT_CLR(hadc->Instance->CR2, ADC_CR2_ADON))
 847              		.loc 1 518 0
 848 004c 7B68     		ldr	r3, [r7, #4]
ARM GAS  /var/folders/ck/4xtm3skj1ssb0w4rn7_4q_gw0000gn/T//ccdOVP6q.s 			page 25


 849 004e 1B68     		ldr	r3, [r3]
 850 0050 9B68     		ldr	r3, [r3, #8]
 851 0052 03F00103 		and	r3, r3, #1
 852 0056 002B     		cmp	r3, #0
 853 0058 12D1     		bne	.L42
 519:Drivers/STM32F4xx_HAL_Driver/Src/stm32f4xx_hal_adc_ex.c ****     {
 520:Drivers/STM32F4xx_HAL_Driver/Src/stm32f4xx_hal_adc_ex.c ****       /* Disable ADC end of conversion interrupt for injected channels */
 521:Drivers/STM32F4xx_HAL_Driver/Src/stm32f4xx_hal_adc_ex.c ****       __HAL_ADC_DISABLE_IT(hadc, ADC_IT_JEOC);
 854              		.loc 1 521 0
 855 005a 7B68     		ldr	r3, [r7, #4]
 856 005c 1B68     		ldr	r3, [r3]
 857 005e 7A68     		ldr	r2, [r7, #4]
 858 0060 1268     		ldr	r2, [r2]
 859 0062 5268     		ldr	r2, [r2, #4]
 860 0064 22F08002 		bic	r2, r2, #128
 861 0068 5A60     		str	r2, [r3, #4]
 522:Drivers/STM32F4xx_HAL_Driver/Src/stm32f4xx_hal_adc_ex.c ****       
 523:Drivers/STM32F4xx_HAL_Driver/Src/stm32f4xx_hal_adc_ex.c ****       /* Set ADC state */
 524:Drivers/STM32F4xx_HAL_Driver/Src/stm32f4xx_hal_adc_ex.c ****       ADC_STATE_CLR_SET(hadc->State,
 862              		.loc 1 524 0
 863 006a 7B68     		ldr	r3, [r7, #4]
 864 006c 1B6C     		ldr	r3, [r3, #64]
 865 006e 23F48853 		bic	r3, r3, #4352
 866 0072 23F00103 		bic	r3, r3, #1
 867 0076 43F00102 		orr	r2, r3, #1
 868 007a 7B68     		ldr	r3, [r7, #4]
 869 007c 1A64     		str	r2, [r3, #64]
 518:Drivers/STM32F4xx_HAL_Driver/Src/stm32f4xx_hal_adc_ex.c ****     {
 870              		.loc 1 518 0
 871 007e 08E0     		b	.L43
 872              	.L42:
 873 0080 07E0     		b	.L43
 874              	.L41:
 525:Drivers/STM32F4xx_HAL_Driver/Src/stm32f4xx_hal_adc_ex.c ****                         HAL_ADC_STATE_REG_BUSY | HAL_ADC_STATE_INJ_BUSY,
 526:Drivers/STM32F4xx_HAL_Driver/Src/stm32f4xx_hal_adc_ex.c ****                         HAL_ADC_STATE_READY);
 527:Drivers/STM32F4xx_HAL_Driver/Src/stm32f4xx_hal_adc_ex.c ****     }
 528:Drivers/STM32F4xx_HAL_Driver/Src/stm32f4xx_hal_adc_ex.c ****   }
 529:Drivers/STM32F4xx_HAL_Driver/Src/stm32f4xx_hal_adc_ex.c ****   else
 530:Drivers/STM32F4xx_HAL_Driver/Src/stm32f4xx_hal_adc_ex.c ****   {
 531:Drivers/STM32F4xx_HAL_Driver/Src/stm32f4xx_hal_adc_ex.c ****     /* Update ADC state machine to error */
 532:Drivers/STM32F4xx_HAL_Driver/Src/stm32f4xx_hal_adc_ex.c ****     SET_BIT(hadc->State, HAL_ADC_STATE_ERROR_CONFIG);
 875              		.loc 1 532 0
 876 0082 7B68     		ldr	r3, [r7, #4]
 877 0084 1B6C     		ldr	r3, [r3, #64]
 878 0086 43F02002 		orr	r2, r3, #32
 879 008a 7B68     		ldr	r3, [r7, #4]
 880 008c 1A64     		str	r2, [r3, #64]
 533:Drivers/STM32F4xx_HAL_Driver/Src/stm32f4xx_hal_adc_ex.c ****       
 534:Drivers/STM32F4xx_HAL_Driver/Src/stm32f4xx_hal_adc_ex.c ****     tmp_hal_status = HAL_ERROR;
 881              		.loc 1 534 0
 882 008e 0123     		movs	r3, #1
 883 0090 FB73     		strb	r3, [r7, #15]
 884              	.L43:
 535:Drivers/STM32F4xx_HAL_Driver/Src/stm32f4xx_hal_adc_ex.c ****   }
 536:Drivers/STM32F4xx_HAL_Driver/Src/stm32f4xx_hal_adc_ex.c ****   
 537:Drivers/STM32F4xx_HAL_Driver/Src/stm32f4xx_hal_adc_ex.c ****   /* Process unlocked */
 538:Drivers/STM32F4xx_HAL_Driver/Src/stm32f4xx_hal_adc_ex.c ****   __HAL_UNLOCK(hadc);
ARM GAS  /var/folders/ck/4xtm3skj1ssb0w4rn7_4q_gw0000gn/T//ccdOVP6q.s 			page 26


 885              		.loc 1 538 0
 886 0092 7B68     		ldr	r3, [r7, #4]
 887 0094 0022     		movs	r2, #0
 888 0096 83F83C20 		strb	r2, [r3, #60]
 539:Drivers/STM32F4xx_HAL_Driver/Src/stm32f4xx_hal_adc_ex.c ****   
 540:Drivers/STM32F4xx_HAL_Driver/Src/stm32f4xx_hal_adc_ex.c ****   /* Return function status */
 541:Drivers/STM32F4xx_HAL_Driver/Src/stm32f4xx_hal_adc_ex.c ****   return tmp_hal_status;
 889              		.loc 1 541 0
 890 009a FB7B     		ldrb	r3, [r7, #15]	@ zero_extendqisi2
 891              	.L40:
 542:Drivers/STM32F4xx_HAL_Driver/Src/stm32f4xx_hal_adc_ex.c **** }
 892              		.loc 1 542 0
 893 009c 1846     		mov	r0, r3
 894 009e 1437     		adds	r7, r7, #20
 895              	.LCFI26:
 896              		.cfi_def_cfa_offset 4
 897 00a0 BD46     		mov	sp, r7
 898              	.LCFI27:
 899              		.cfi_def_cfa_register 13
 900              		@ sp needed
 901 00a2 5DF8047B 		ldr	r7, [sp], #4
 902              	.LCFI28:
 903              		.cfi_restore 7
 904              		.cfi_def_cfa_offset 0
 905 00a6 7047     		bx	lr
 906              		.cfi_endproc
 907              	.LFE127:
 909              		.section	.text.HAL_ADCEx_InjectedGetValue,"ax",%progbits
 910              		.align	2
 911              		.global	HAL_ADCEx_InjectedGetValue
 912              		.thumb
 913              		.thumb_func
 915              	HAL_ADCEx_InjectedGetValue:
 916              	.LFB128:
 543:Drivers/STM32F4xx_HAL_Driver/Src/stm32f4xx_hal_adc_ex.c **** 
 544:Drivers/STM32F4xx_HAL_Driver/Src/stm32f4xx_hal_adc_ex.c **** /**
 545:Drivers/STM32F4xx_HAL_Driver/Src/stm32f4xx_hal_adc_ex.c ****   * @brief  Gets the converted value from data register of injected channel.
 546:Drivers/STM32F4xx_HAL_Driver/Src/stm32f4xx_hal_adc_ex.c ****   * @param  hadc pointer to a ADC_HandleTypeDef structure that contains
 547:Drivers/STM32F4xx_HAL_Driver/Src/stm32f4xx_hal_adc_ex.c ****   *         the configuration information for the specified ADC.
 548:Drivers/STM32F4xx_HAL_Driver/Src/stm32f4xx_hal_adc_ex.c ****   * @param  InjectedRank the ADC injected rank.
 549:Drivers/STM32F4xx_HAL_Driver/Src/stm32f4xx_hal_adc_ex.c ****   *          This parameter can be one of the following values:
 550:Drivers/STM32F4xx_HAL_Driver/Src/stm32f4xx_hal_adc_ex.c ****   *            @arg ADC_INJECTED_RANK_1: Injected Channel1 selected
 551:Drivers/STM32F4xx_HAL_Driver/Src/stm32f4xx_hal_adc_ex.c ****   *            @arg ADC_INJECTED_RANK_2: Injected Channel2 selected
 552:Drivers/STM32F4xx_HAL_Driver/Src/stm32f4xx_hal_adc_ex.c ****   *            @arg ADC_INJECTED_RANK_3: Injected Channel3 selected
 553:Drivers/STM32F4xx_HAL_Driver/Src/stm32f4xx_hal_adc_ex.c ****   *            @arg ADC_INJECTED_RANK_4: Injected Channel4 selected
 554:Drivers/STM32F4xx_HAL_Driver/Src/stm32f4xx_hal_adc_ex.c ****   * @retval None
 555:Drivers/STM32F4xx_HAL_Driver/Src/stm32f4xx_hal_adc_ex.c ****   */
 556:Drivers/STM32F4xx_HAL_Driver/Src/stm32f4xx_hal_adc_ex.c **** uint32_t HAL_ADCEx_InjectedGetValue(ADC_HandleTypeDef* hadc, uint32_t InjectedRank)
 557:Drivers/STM32F4xx_HAL_Driver/Src/stm32f4xx_hal_adc_ex.c **** {
 917              		.loc 1 557 0
 918              		.cfi_startproc
 919              		@ args = 0, pretend = 0, frame = 16
 920              		@ frame_needed = 1, uses_anonymous_args = 0
 921              		@ link register save eliminated.
 922 0000 80B4     		push	{r7}
 923              	.LCFI29:
 924              		.cfi_def_cfa_offset 4
ARM GAS  /var/folders/ck/4xtm3skj1ssb0w4rn7_4q_gw0000gn/T//ccdOVP6q.s 			page 27


 925              		.cfi_offset 7, -4
 926 0002 85B0     		sub	sp, sp, #20
 927              	.LCFI30:
 928              		.cfi_def_cfa_offset 24
 929 0004 00AF     		add	r7, sp, #0
 930              	.LCFI31:
 931              		.cfi_def_cfa_register 7
 932 0006 7860     		str	r0, [r7, #4]
 933 0008 3960     		str	r1, [r7]
 558:Drivers/STM32F4xx_HAL_Driver/Src/stm32f4xx_hal_adc_ex.c ****   __IO uint32_t tmp = 0U;
 934              		.loc 1 558 0
 935 000a 0023     		movs	r3, #0
 936 000c FB60     		str	r3, [r7, #12]
 559:Drivers/STM32F4xx_HAL_Driver/Src/stm32f4xx_hal_adc_ex.c ****   
 560:Drivers/STM32F4xx_HAL_Driver/Src/stm32f4xx_hal_adc_ex.c ****   /* Check the parameters */
 561:Drivers/STM32F4xx_HAL_Driver/Src/stm32f4xx_hal_adc_ex.c ****   assert_param(IS_ADC_INJECTED_RANK(InjectedRank));
 562:Drivers/STM32F4xx_HAL_Driver/Src/stm32f4xx_hal_adc_ex.c ****   
 563:Drivers/STM32F4xx_HAL_Driver/Src/stm32f4xx_hal_adc_ex.c ****   /* Clear injected group conversion flag to have similar behaviour as        */
 564:Drivers/STM32F4xx_HAL_Driver/Src/stm32f4xx_hal_adc_ex.c ****   /* regular group: reading data register also clears end of conversion flag. */
 565:Drivers/STM32F4xx_HAL_Driver/Src/stm32f4xx_hal_adc_ex.c ****   __HAL_ADC_CLEAR_FLAG(hadc, ADC_FLAG_JEOC);
 937              		.loc 1 565 0
 938 000e 7B68     		ldr	r3, [r7, #4]
 939 0010 1B68     		ldr	r3, [r3]
 940 0012 6FF00402 		mvn	r2, #4
 941 0016 1A60     		str	r2, [r3]
 566:Drivers/STM32F4xx_HAL_Driver/Src/stm32f4xx_hal_adc_ex.c ****   
 567:Drivers/STM32F4xx_HAL_Driver/Src/stm32f4xx_hal_adc_ex.c ****   /* Return the selected ADC converted value */ 
 568:Drivers/STM32F4xx_HAL_Driver/Src/stm32f4xx_hal_adc_ex.c ****   switch(InjectedRank)
 942              		.loc 1 568 0
 943 0018 3B68     		ldr	r3, [r7]
 944 001a 013B     		subs	r3, r3, #1
 945 001c 032B     		cmp	r3, #3
 946 001e 1FD8     		bhi	.L53
 947 0020 01A2     		adr	r2, .L47
 948 0022 52F823F0 		ldr	pc, [r2, r3, lsl #2]
 949 0026 00BF     		.p2align 2
 950              	.L47:
 951 0028 57000000 		.word	.L46+1
 952 002c 4D000000 		.word	.L48+1
 953 0030 43000000 		.word	.L49+1
 954 0034 39000000 		.word	.L50+1
 955              		.p2align 1
 956              	.L50:
 569:Drivers/STM32F4xx_HAL_Driver/Src/stm32f4xx_hal_adc_ex.c ****   {  
 570:Drivers/STM32F4xx_HAL_Driver/Src/stm32f4xx_hal_adc_ex.c ****     case ADC_INJECTED_RANK_4:
 571:Drivers/STM32F4xx_HAL_Driver/Src/stm32f4xx_hal_adc_ex.c ****     {
 572:Drivers/STM32F4xx_HAL_Driver/Src/stm32f4xx_hal_adc_ex.c ****       tmp =  hadc->Instance->JDR4;
 957              		.loc 1 572 0
 958 0038 7B68     		ldr	r3, [r7, #4]
 959 003a 1B68     		ldr	r3, [r3]
 960 003c 9B6C     		ldr	r3, [r3, #72]
 961 003e FB60     		str	r3, [r7, #12]
 573:Drivers/STM32F4xx_HAL_Driver/Src/stm32f4xx_hal_adc_ex.c ****     }  
 574:Drivers/STM32F4xx_HAL_Driver/Src/stm32f4xx_hal_adc_ex.c ****     break;
 962              		.loc 1 574 0
 963 0040 0FE0     		b	.L51
 964              	.L49:
ARM GAS  /var/folders/ck/4xtm3skj1ssb0w4rn7_4q_gw0000gn/T//ccdOVP6q.s 			page 28


 575:Drivers/STM32F4xx_HAL_Driver/Src/stm32f4xx_hal_adc_ex.c ****     case ADC_INJECTED_RANK_3: 
 576:Drivers/STM32F4xx_HAL_Driver/Src/stm32f4xx_hal_adc_ex.c ****     {  
 577:Drivers/STM32F4xx_HAL_Driver/Src/stm32f4xx_hal_adc_ex.c ****       tmp =  hadc->Instance->JDR3;
 965              		.loc 1 577 0
 966 0042 7B68     		ldr	r3, [r7, #4]
 967 0044 1B68     		ldr	r3, [r3]
 968 0046 5B6C     		ldr	r3, [r3, #68]
 969 0048 FB60     		str	r3, [r7, #12]
 578:Drivers/STM32F4xx_HAL_Driver/Src/stm32f4xx_hal_adc_ex.c ****     }  
 579:Drivers/STM32F4xx_HAL_Driver/Src/stm32f4xx_hal_adc_ex.c ****     break;
 970              		.loc 1 579 0
 971 004a 0AE0     		b	.L51
 972              	.L48:
 580:Drivers/STM32F4xx_HAL_Driver/Src/stm32f4xx_hal_adc_ex.c ****     case ADC_INJECTED_RANK_2: 
 581:Drivers/STM32F4xx_HAL_Driver/Src/stm32f4xx_hal_adc_ex.c ****     {  
 582:Drivers/STM32F4xx_HAL_Driver/Src/stm32f4xx_hal_adc_ex.c ****       tmp =  hadc->Instance->JDR2;
 973              		.loc 1 582 0
 974 004c 7B68     		ldr	r3, [r7, #4]
 975 004e 1B68     		ldr	r3, [r3]
 976 0050 1B6C     		ldr	r3, [r3, #64]
 977 0052 FB60     		str	r3, [r7, #12]
 583:Drivers/STM32F4xx_HAL_Driver/Src/stm32f4xx_hal_adc_ex.c ****     }
 584:Drivers/STM32F4xx_HAL_Driver/Src/stm32f4xx_hal_adc_ex.c ****     break;
 978              		.loc 1 584 0
 979 0054 05E0     		b	.L51
 980              	.L46:
 585:Drivers/STM32F4xx_HAL_Driver/Src/stm32f4xx_hal_adc_ex.c ****     case ADC_INJECTED_RANK_1:
 586:Drivers/STM32F4xx_HAL_Driver/Src/stm32f4xx_hal_adc_ex.c ****     {
 587:Drivers/STM32F4xx_HAL_Driver/Src/stm32f4xx_hal_adc_ex.c ****       tmp =  hadc->Instance->JDR1;
 981              		.loc 1 587 0
 982 0056 7B68     		ldr	r3, [r7, #4]
 983 0058 1B68     		ldr	r3, [r3]
 984 005a DB6B     		ldr	r3, [r3, #60]
 985 005c FB60     		str	r3, [r7, #12]
 588:Drivers/STM32F4xx_HAL_Driver/Src/stm32f4xx_hal_adc_ex.c ****     }
 589:Drivers/STM32F4xx_HAL_Driver/Src/stm32f4xx_hal_adc_ex.c ****     break;
 986              		.loc 1 589 0
 987 005e 00E0     		b	.L51
 988              	.L53:
 590:Drivers/STM32F4xx_HAL_Driver/Src/stm32f4xx_hal_adc_ex.c ****     default:
 591:Drivers/STM32F4xx_HAL_Driver/Src/stm32f4xx_hal_adc_ex.c ****     break;  
 989              		.loc 1 591 0
 990 0060 00BF     		nop
 991              	.L51:
 592:Drivers/STM32F4xx_HAL_Driver/Src/stm32f4xx_hal_adc_ex.c ****   }
 593:Drivers/STM32F4xx_HAL_Driver/Src/stm32f4xx_hal_adc_ex.c ****   return tmp;
 992              		.loc 1 593 0
 993 0062 FB68     		ldr	r3, [r7, #12]
 594:Drivers/STM32F4xx_HAL_Driver/Src/stm32f4xx_hal_adc_ex.c **** }
 994              		.loc 1 594 0
 995 0064 1846     		mov	r0, r3
 996 0066 1437     		adds	r7, r7, #20
 997              	.LCFI32:
 998              		.cfi_def_cfa_offset 4
 999 0068 BD46     		mov	sp, r7
 1000              	.LCFI33:
 1001              		.cfi_def_cfa_register 13
ARM GAS  /var/folders/ck/4xtm3skj1ssb0w4rn7_4q_gw0000gn/T//ccdOVP6q.s 			page 29


 1002              		@ sp needed
 1003 006a 5DF8047B 		ldr	r7, [sp], #4
 1004              	.LCFI34:
 1005              		.cfi_restore 7
 1006              		.cfi_def_cfa_offset 0
 1007 006e 7047     		bx	lr
 1008              		.cfi_endproc
 1009              	.LFE128:
 1011              		.section	.text.HAL_ADCEx_MultiModeStart_DMA,"ax",%progbits
 1012              		.align	2
 1013              		.global	HAL_ADCEx_MultiModeStart_DMA
 1014              		.thumb
 1015              		.thumb_func
 1017              	HAL_ADCEx_MultiModeStart_DMA:
 1018              	.LFB129:
 595:Drivers/STM32F4xx_HAL_Driver/Src/stm32f4xx_hal_adc_ex.c **** 
 596:Drivers/STM32F4xx_HAL_Driver/Src/stm32f4xx_hal_adc_ex.c **** /**
 597:Drivers/STM32F4xx_HAL_Driver/Src/stm32f4xx_hal_adc_ex.c ****   * @brief  Enables ADC DMA request after last transfer (Multi-ADC mode) and enables ADC peripheral
 598:Drivers/STM32F4xx_HAL_Driver/Src/stm32f4xx_hal_adc_ex.c ****   * 
 599:Drivers/STM32F4xx_HAL_Driver/Src/stm32f4xx_hal_adc_ex.c ****   * @note   Caution: This function must be used only with the ADC master.  
 600:Drivers/STM32F4xx_HAL_Driver/Src/stm32f4xx_hal_adc_ex.c ****   *
 601:Drivers/STM32F4xx_HAL_Driver/Src/stm32f4xx_hal_adc_ex.c ****   * @param  hadc pointer to a ADC_HandleTypeDef structure that contains
 602:Drivers/STM32F4xx_HAL_Driver/Src/stm32f4xx_hal_adc_ex.c ****   *         the configuration information for the specified ADC.
 603:Drivers/STM32F4xx_HAL_Driver/Src/stm32f4xx_hal_adc_ex.c ****   * @param  pData   Pointer to buffer in which transferred from ADC peripheral to memory will be st
 604:Drivers/STM32F4xx_HAL_Driver/Src/stm32f4xx_hal_adc_ex.c ****   * @param  Length  The length of data to be transferred from ADC peripheral to memory.  
 605:Drivers/STM32F4xx_HAL_Driver/Src/stm32f4xx_hal_adc_ex.c ****   * @retval HAL status
 606:Drivers/STM32F4xx_HAL_Driver/Src/stm32f4xx_hal_adc_ex.c ****   */
 607:Drivers/STM32F4xx_HAL_Driver/Src/stm32f4xx_hal_adc_ex.c **** HAL_StatusTypeDef HAL_ADCEx_MultiModeStart_DMA(ADC_HandleTypeDef* hadc, uint32_t* pData, uint32_t L
 608:Drivers/STM32F4xx_HAL_Driver/Src/stm32f4xx_hal_adc_ex.c **** {
 1019              		.loc 1 608 0
 1020              		.cfi_startproc
 1021              		@ args = 0, pretend = 0, frame = 24
 1022              		@ frame_needed = 1, uses_anonymous_args = 0
 1023 0000 80B5     		push	{r7, lr}
 1024              	.LCFI35:
 1025              		.cfi_def_cfa_offset 8
 1026              		.cfi_offset 7, -8
 1027              		.cfi_offset 14, -4
 1028 0002 86B0     		sub	sp, sp, #24
 1029              	.LCFI36:
 1030              		.cfi_def_cfa_offset 32
 1031 0004 00AF     		add	r7, sp, #0
 1032              	.LCFI37:
 1033              		.cfi_def_cfa_register 7
 1034 0006 F860     		str	r0, [r7, #12]
 1035 0008 B960     		str	r1, [r7, #8]
 1036 000a 7A60     		str	r2, [r7, #4]
 609:Drivers/STM32F4xx_HAL_Driver/Src/stm32f4xx_hal_adc_ex.c ****   __IO uint32_t counter = 0U;
 1037              		.loc 1 609 0
 1038 000c 0023     		movs	r3, #0
 1039 000e 3B61     		str	r3, [r7, #16]
 610:Drivers/STM32F4xx_HAL_Driver/Src/stm32f4xx_hal_adc_ex.c ****   ADC_Common_TypeDef *tmpADC_Common;
 611:Drivers/STM32F4xx_HAL_Driver/Src/stm32f4xx_hal_adc_ex.c ****   
 612:Drivers/STM32F4xx_HAL_Driver/Src/stm32f4xx_hal_adc_ex.c ****   /* Check the parameters */
 613:Drivers/STM32F4xx_HAL_Driver/Src/stm32f4xx_hal_adc_ex.c ****   assert_param(IS_FUNCTIONAL_STATE(hadc->Init.ContinuousConvMode));
 614:Drivers/STM32F4xx_HAL_Driver/Src/stm32f4xx_hal_adc_ex.c ****   assert_param(IS_ADC_EXT_TRIG_EDGE(hadc->Init.ExternalTrigConvEdge));
 615:Drivers/STM32F4xx_HAL_Driver/Src/stm32f4xx_hal_adc_ex.c ****   assert_param(IS_FUNCTIONAL_STATE(hadc->Init.DMAContinuousRequests));
ARM GAS  /var/folders/ck/4xtm3skj1ssb0w4rn7_4q_gw0000gn/T//ccdOVP6q.s 			page 30


 616:Drivers/STM32F4xx_HAL_Driver/Src/stm32f4xx_hal_adc_ex.c ****   
 617:Drivers/STM32F4xx_HAL_Driver/Src/stm32f4xx_hal_adc_ex.c ****   /* Process locked */
 618:Drivers/STM32F4xx_HAL_Driver/Src/stm32f4xx_hal_adc_ex.c ****   __HAL_LOCK(hadc);
 1040              		.loc 1 618 0
 1041 0010 FB68     		ldr	r3, [r7, #12]
 1042 0012 93F83C30 		ldrb	r3, [r3, #60]	@ zero_extendqisi2
 1043 0016 012B     		cmp	r3, #1
 1044 0018 01D1     		bne	.L55
 1045              		.loc 1 618 0 is_stmt 0 discriminator 1
 1046 001a 0223     		movs	r3, #2
 1047 001c 9EE0     		b	.L56
 1048              	.L55:
 1049              		.loc 1 618 0 discriminator 2
 1050 001e FB68     		ldr	r3, [r7, #12]
 1051 0020 0122     		movs	r2, #1
 1052 0022 83F83C20 		strb	r2, [r3, #60]
 619:Drivers/STM32F4xx_HAL_Driver/Src/stm32f4xx_hal_adc_ex.c ****   
 620:Drivers/STM32F4xx_HAL_Driver/Src/stm32f4xx_hal_adc_ex.c ****   /* Check if ADC peripheral is disabled in order to enable it and wait during 
 621:Drivers/STM32F4xx_HAL_Driver/Src/stm32f4xx_hal_adc_ex.c ****      Tstab time the ADC's stabilization */
 622:Drivers/STM32F4xx_HAL_Driver/Src/stm32f4xx_hal_adc_ex.c ****   if((hadc->Instance->CR2 & ADC_CR2_ADON) != ADC_CR2_ADON)
 1053              		.loc 1 622 0 is_stmt 1 discriminator 2
 1054 0026 FB68     		ldr	r3, [r7, #12]
 1055 0028 1B68     		ldr	r3, [r3]
 1056 002a 9B68     		ldr	r3, [r3, #8]
 1057 002c 03F00103 		and	r3, r3, #1
 1058 0030 002B     		cmp	r3, #0
 1059 0032 18D1     		bne	.L57
 623:Drivers/STM32F4xx_HAL_Driver/Src/stm32f4xx_hal_adc_ex.c ****   {  
 624:Drivers/STM32F4xx_HAL_Driver/Src/stm32f4xx_hal_adc_ex.c ****     /* Enable the Peripheral */
 625:Drivers/STM32F4xx_HAL_Driver/Src/stm32f4xx_hal_adc_ex.c ****     __HAL_ADC_ENABLE(hadc);
 1060              		.loc 1 625 0
 1061 0034 FB68     		ldr	r3, [r7, #12]
 1062 0036 1B68     		ldr	r3, [r3]
 1063 0038 FA68     		ldr	r2, [r7, #12]
 1064 003a 1268     		ldr	r2, [r2]
 1065 003c 9268     		ldr	r2, [r2, #8]
 1066 003e 42F00102 		orr	r2, r2, #1
 1067 0042 9A60     		str	r2, [r3, #8]
 626:Drivers/STM32F4xx_HAL_Driver/Src/stm32f4xx_hal_adc_ex.c ****     
 627:Drivers/STM32F4xx_HAL_Driver/Src/stm32f4xx_hal_adc_ex.c ****     /* Delay for temperature sensor stabilization time */
 628:Drivers/STM32F4xx_HAL_Driver/Src/stm32f4xx_hal_adc_ex.c ****     /* Compute number of CPU cycles to wait for */
 629:Drivers/STM32F4xx_HAL_Driver/Src/stm32f4xx_hal_adc_ex.c ****     counter = (ADC_STAB_DELAY_US * (SystemCoreClock / 1000000U));
 1068              		.loc 1 629 0
 1069 0044 474B     		ldr	r3, .L66
 1070 0046 1B68     		ldr	r3, [r3]
 1071 0048 474A     		ldr	r2, .L66+4
 1072 004a A2FB0323 		umull	r2, r3, r2, r3
 1073 004e 9A0C     		lsrs	r2, r3, #18
 1074 0050 1346     		mov	r3, r2
 1075 0052 5B00     		lsls	r3, r3, #1
 1076 0054 1344     		add	r3, r3, r2
 1077 0056 3B61     		str	r3, [r7, #16]
 630:Drivers/STM32F4xx_HAL_Driver/Src/stm32f4xx_hal_adc_ex.c ****     while(counter != 0U)
 1078              		.loc 1 630 0
 1079 0058 02E0     		b	.L58
 1080              	.L59:
 631:Drivers/STM32F4xx_HAL_Driver/Src/stm32f4xx_hal_adc_ex.c ****     {
ARM GAS  /var/folders/ck/4xtm3skj1ssb0w4rn7_4q_gw0000gn/T//ccdOVP6q.s 			page 31


 632:Drivers/STM32F4xx_HAL_Driver/Src/stm32f4xx_hal_adc_ex.c ****       counter--;
 1081              		.loc 1 632 0
 1082 005a 3B69     		ldr	r3, [r7, #16]
 1083 005c 013B     		subs	r3, r3, #1
 1084 005e 3B61     		str	r3, [r7, #16]
 1085              	.L58:
 630:Drivers/STM32F4xx_HAL_Driver/Src/stm32f4xx_hal_adc_ex.c ****     while(counter != 0U)
 1086              		.loc 1 630 0
 1087 0060 3B69     		ldr	r3, [r7, #16]
 1088 0062 002B     		cmp	r3, #0
 1089 0064 F9D1     		bne	.L59
 1090              	.L57:
 633:Drivers/STM32F4xx_HAL_Driver/Src/stm32f4xx_hal_adc_ex.c ****     }
 634:Drivers/STM32F4xx_HAL_Driver/Src/stm32f4xx_hal_adc_ex.c ****   }
 635:Drivers/STM32F4xx_HAL_Driver/Src/stm32f4xx_hal_adc_ex.c ****   
 636:Drivers/STM32F4xx_HAL_Driver/Src/stm32f4xx_hal_adc_ex.c ****   /* Start conversion if ADC is effectively enabled */
 637:Drivers/STM32F4xx_HAL_Driver/Src/stm32f4xx_hal_adc_ex.c ****   if(HAL_IS_BIT_SET(hadc->Instance->CR2, ADC_CR2_ADON))
 1091              		.loc 1 637 0
 1092 0066 FB68     		ldr	r3, [r7, #12]
 1093 0068 1B68     		ldr	r3, [r3]
 1094 006a 9B68     		ldr	r3, [r3, #8]
 1095 006c 03F00103 		and	r3, r3, #1
 1096 0070 002B     		cmp	r3, #0
 1097 0072 72D0     		beq	.L60
 638:Drivers/STM32F4xx_HAL_Driver/Src/stm32f4xx_hal_adc_ex.c ****   {
 639:Drivers/STM32F4xx_HAL_Driver/Src/stm32f4xx_hal_adc_ex.c ****     /* Set ADC state                                                          */
 640:Drivers/STM32F4xx_HAL_Driver/Src/stm32f4xx_hal_adc_ex.c ****     /* - Clear state bitfield related to regular group conversion results     */
 641:Drivers/STM32F4xx_HAL_Driver/Src/stm32f4xx_hal_adc_ex.c ****     /* - Set state bitfield related to regular group operation                */
 642:Drivers/STM32F4xx_HAL_Driver/Src/stm32f4xx_hal_adc_ex.c ****     ADC_STATE_CLR_SET(hadc->State,
 1098              		.loc 1 642 0
 1099 0074 FB68     		ldr	r3, [r7, #12]
 1100 0076 1B6C     		ldr	r3, [r3, #64]
 1101 0078 23F4E063 		bic	r3, r3, #1792
 1102 007c 23F00103 		bic	r3, r3, #1
 1103 0080 43F48072 		orr	r2, r3, #256
 1104 0084 FB68     		ldr	r3, [r7, #12]
 1105 0086 1A64     		str	r2, [r3, #64]
 643:Drivers/STM32F4xx_HAL_Driver/Src/stm32f4xx_hal_adc_ex.c ****                       HAL_ADC_STATE_READY | HAL_ADC_STATE_REG_EOC | HAL_ADC_STATE_REG_OVR,
 644:Drivers/STM32F4xx_HAL_Driver/Src/stm32f4xx_hal_adc_ex.c ****                       HAL_ADC_STATE_REG_BUSY);
 645:Drivers/STM32F4xx_HAL_Driver/Src/stm32f4xx_hal_adc_ex.c ****     
 646:Drivers/STM32F4xx_HAL_Driver/Src/stm32f4xx_hal_adc_ex.c ****     /* If conversions on group regular are also triggering group injected,    */
 647:Drivers/STM32F4xx_HAL_Driver/Src/stm32f4xx_hal_adc_ex.c ****     /* update ADC state.                                                      */
 648:Drivers/STM32F4xx_HAL_Driver/Src/stm32f4xx_hal_adc_ex.c ****     if (READ_BIT(hadc->Instance->CR1, ADC_CR1_JAUTO) != RESET)
 1106              		.loc 1 648 0
 1107 0088 FB68     		ldr	r3, [r7, #12]
 1108 008a 1B68     		ldr	r3, [r3]
 1109 008c 5B68     		ldr	r3, [r3, #4]
 1110 008e 03F48063 		and	r3, r3, #1024
 1111 0092 002B     		cmp	r3, #0
 1112 0094 07D0     		beq	.L61
 649:Drivers/STM32F4xx_HAL_Driver/Src/stm32f4xx_hal_adc_ex.c ****     {
 650:Drivers/STM32F4xx_HAL_Driver/Src/stm32f4xx_hal_adc_ex.c ****       ADC_STATE_CLR_SET(hadc->State, HAL_ADC_STATE_INJ_EOC, HAL_ADC_STATE_INJ_BUSY);  
 1113              		.loc 1 650 0
 1114 0096 FB68     		ldr	r3, [r7, #12]
 1115 0098 1B6C     		ldr	r3, [r3, #64]
 1116 009a 23F44053 		bic	r3, r3, #12288
 1117 009e 43F48052 		orr	r2, r3, #4096
ARM GAS  /var/folders/ck/4xtm3skj1ssb0w4rn7_4q_gw0000gn/T//ccdOVP6q.s 			page 32


 1118 00a2 FB68     		ldr	r3, [r7, #12]
 1119 00a4 1A64     		str	r2, [r3, #64]
 1120              	.L61:
 651:Drivers/STM32F4xx_HAL_Driver/Src/stm32f4xx_hal_adc_ex.c ****     }
 652:Drivers/STM32F4xx_HAL_Driver/Src/stm32f4xx_hal_adc_ex.c ****     
 653:Drivers/STM32F4xx_HAL_Driver/Src/stm32f4xx_hal_adc_ex.c ****     /* State machine update: Check if an injected conversion is ongoing */
 654:Drivers/STM32F4xx_HAL_Driver/Src/stm32f4xx_hal_adc_ex.c ****     if (HAL_IS_BIT_SET(hadc->State, HAL_ADC_STATE_INJ_BUSY))
 1121              		.loc 1 654 0
 1122 00a6 FB68     		ldr	r3, [r7, #12]
 1123 00a8 1B6C     		ldr	r3, [r3, #64]
 1124 00aa 03F48053 		and	r3, r3, #4096
 1125 00ae 002B     		cmp	r3, #0
 1126 00b0 06D0     		beq	.L62
 655:Drivers/STM32F4xx_HAL_Driver/Src/stm32f4xx_hal_adc_ex.c ****     {
 656:Drivers/STM32F4xx_HAL_Driver/Src/stm32f4xx_hal_adc_ex.c ****       /* Reset ADC error code fields related to conversions on group regular */
 657:Drivers/STM32F4xx_HAL_Driver/Src/stm32f4xx_hal_adc_ex.c ****       CLEAR_BIT(hadc->ErrorCode, (HAL_ADC_ERROR_OVR | HAL_ADC_ERROR_DMA));         
 1127              		.loc 1 657 0
 1128 00b2 FB68     		ldr	r3, [r7, #12]
 1129 00b4 5B6C     		ldr	r3, [r3, #68]
 1130 00b6 23F00602 		bic	r2, r3, #6
 1131 00ba FB68     		ldr	r3, [r7, #12]
 1132 00bc 5A64     		str	r2, [r3, #68]
 1133 00be 02E0     		b	.L63
 1134              	.L62:
 658:Drivers/STM32F4xx_HAL_Driver/Src/stm32f4xx_hal_adc_ex.c ****     }
 659:Drivers/STM32F4xx_HAL_Driver/Src/stm32f4xx_hal_adc_ex.c ****     else
 660:Drivers/STM32F4xx_HAL_Driver/Src/stm32f4xx_hal_adc_ex.c ****     {
 661:Drivers/STM32F4xx_HAL_Driver/Src/stm32f4xx_hal_adc_ex.c ****       /* Reset ADC all error code fields */
 662:Drivers/STM32F4xx_HAL_Driver/Src/stm32f4xx_hal_adc_ex.c ****       ADC_CLEAR_ERRORCODE(hadc);
 1135              		.loc 1 662 0
 1136 00c0 FB68     		ldr	r3, [r7, #12]
 1137 00c2 0022     		movs	r2, #0
 1138 00c4 5A64     		str	r2, [r3, #68]
 1139              	.L63:
 663:Drivers/STM32F4xx_HAL_Driver/Src/stm32f4xx_hal_adc_ex.c ****     }
 664:Drivers/STM32F4xx_HAL_Driver/Src/stm32f4xx_hal_adc_ex.c ****     
 665:Drivers/STM32F4xx_HAL_Driver/Src/stm32f4xx_hal_adc_ex.c ****     /* Process unlocked */
 666:Drivers/STM32F4xx_HAL_Driver/Src/stm32f4xx_hal_adc_ex.c ****     /* Unlock before starting ADC conversions: in case of potential           */
 667:Drivers/STM32F4xx_HAL_Driver/Src/stm32f4xx_hal_adc_ex.c ****     /* interruption, to let the process to ADC IRQ Handler.                   */
 668:Drivers/STM32F4xx_HAL_Driver/Src/stm32f4xx_hal_adc_ex.c ****     __HAL_UNLOCK(hadc);
 1140              		.loc 1 668 0
 1141 00c6 FB68     		ldr	r3, [r7, #12]
 1142 00c8 0022     		movs	r2, #0
 1143 00ca 83F83C20 		strb	r2, [r3, #60]
 669:Drivers/STM32F4xx_HAL_Driver/Src/stm32f4xx_hal_adc_ex.c ****     
 670:Drivers/STM32F4xx_HAL_Driver/Src/stm32f4xx_hal_adc_ex.c ****     /* Set the DMA transfer complete callback */
 671:Drivers/STM32F4xx_HAL_Driver/Src/stm32f4xx_hal_adc_ex.c ****     hadc->DMA_Handle->XferCpltCallback = ADC_MultiModeDMAConvCplt;
 1144              		.loc 1 671 0
 1145 00ce FB68     		ldr	r3, [r7, #12]
 1146 00d0 9B6B     		ldr	r3, [r3, #56]
 1147 00d2 264A     		ldr	r2, .L66+8
 1148 00d4 DA63     		str	r2, [r3, #60]
 672:Drivers/STM32F4xx_HAL_Driver/Src/stm32f4xx_hal_adc_ex.c ****     
 673:Drivers/STM32F4xx_HAL_Driver/Src/stm32f4xx_hal_adc_ex.c ****     /* Set the DMA half transfer complete callback */
 674:Drivers/STM32F4xx_HAL_Driver/Src/stm32f4xx_hal_adc_ex.c ****     hadc->DMA_Handle->XferHalfCpltCallback = ADC_MultiModeDMAHalfConvCplt;
 1149              		.loc 1 674 0
 1150 00d6 FB68     		ldr	r3, [r7, #12]
ARM GAS  /var/folders/ck/4xtm3skj1ssb0w4rn7_4q_gw0000gn/T//ccdOVP6q.s 			page 33


 1151 00d8 9B6B     		ldr	r3, [r3, #56]
 1152 00da 254A     		ldr	r2, .L66+12
 1153 00dc 1A64     		str	r2, [r3, #64]
 675:Drivers/STM32F4xx_HAL_Driver/Src/stm32f4xx_hal_adc_ex.c ****     
 676:Drivers/STM32F4xx_HAL_Driver/Src/stm32f4xx_hal_adc_ex.c ****     /* Set the DMA error callback */
 677:Drivers/STM32F4xx_HAL_Driver/Src/stm32f4xx_hal_adc_ex.c ****     hadc->DMA_Handle->XferErrorCallback = ADC_MultiModeDMAError ;
 1154              		.loc 1 677 0
 1155 00de FB68     		ldr	r3, [r7, #12]
 1156 00e0 9B6B     		ldr	r3, [r3, #56]
 1157 00e2 244A     		ldr	r2, .L66+16
 1158 00e4 DA64     		str	r2, [r3, #76]
 678:Drivers/STM32F4xx_HAL_Driver/Src/stm32f4xx_hal_adc_ex.c ****     
 679:Drivers/STM32F4xx_HAL_Driver/Src/stm32f4xx_hal_adc_ex.c ****     /* Manage ADC and DMA start: ADC overrun interruption, DMA start, ADC     */
 680:Drivers/STM32F4xx_HAL_Driver/Src/stm32f4xx_hal_adc_ex.c ****     /* start (in case of SW start):                                           */
 681:Drivers/STM32F4xx_HAL_Driver/Src/stm32f4xx_hal_adc_ex.c ****     
 682:Drivers/STM32F4xx_HAL_Driver/Src/stm32f4xx_hal_adc_ex.c ****     /* Clear regular group conversion flag and overrun flag */
 683:Drivers/STM32F4xx_HAL_Driver/Src/stm32f4xx_hal_adc_ex.c ****     /* (To ensure of no unknown state from potential previous ADC operations) */
 684:Drivers/STM32F4xx_HAL_Driver/Src/stm32f4xx_hal_adc_ex.c ****     __HAL_ADC_CLEAR_FLAG(hadc, ADC_FLAG_EOC);
 1159              		.loc 1 684 0
 1160 00e6 FB68     		ldr	r3, [r7, #12]
 1161 00e8 1B68     		ldr	r3, [r3]
 1162 00ea 6FF00202 		mvn	r2, #2
 1163 00ee 1A60     		str	r2, [r3]
 685:Drivers/STM32F4xx_HAL_Driver/Src/stm32f4xx_hal_adc_ex.c **** 
 686:Drivers/STM32F4xx_HAL_Driver/Src/stm32f4xx_hal_adc_ex.c ****     /* Enable ADC overrun interrupt */
 687:Drivers/STM32F4xx_HAL_Driver/Src/stm32f4xx_hal_adc_ex.c ****     __HAL_ADC_ENABLE_IT(hadc, ADC_IT_OVR);
 1164              		.loc 1 687 0
 1165 00f0 FB68     		ldr	r3, [r7, #12]
 1166 00f2 1B68     		ldr	r3, [r3]
 1167 00f4 FA68     		ldr	r2, [r7, #12]
 1168 00f6 1268     		ldr	r2, [r2]
 1169 00f8 5268     		ldr	r2, [r2, #4]
 1170 00fa 42F08062 		orr	r2, r2, #67108864
 1171 00fe 5A60     		str	r2, [r3, #4]
 688:Drivers/STM32F4xx_HAL_Driver/Src/stm32f4xx_hal_adc_ex.c **** 
 689:Drivers/STM32F4xx_HAL_Driver/Src/stm32f4xx_hal_adc_ex.c ****     /* Pointer to the common control register to which is belonging hadc    */
 690:Drivers/STM32F4xx_HAL_Driver/Src/stm32f4xx_hal_adc_ex.c ****     /* (Depending on STM32F4 product, there may be up to 3 ADC and 1 common */
 691:Drivers/STM32F4xx_HAL_Driver/Src/stm32f4xx_hal_adc_ex.c ****     /* control register)                                                    */
 692:Drivers/STM32F4xx_HAL_Driver/Src/stm32f4xx_hal_adc_ex.c ****     tmpADC_Common = ADC_COMMON_REGISTER(hadc);
 1172              		.loc 1 692 0
 1173 0100 1D4B     		ldr	r3, .L66+20
 1174 0102 7B61     		str	r3, [r7, #20]
 693:Drivers/STM32F4xx_HAL_Driver/Src/stm32f4xx_hal_adc_ex.c **** 
 694:Drivers/STM32F4xx_HAL_Driver/Src/stm32f4xx_hal_adc_ex.c ****     if (hadc->Init.DMAContinuousRequests != DISABLE)
 1175              		.loc 1 694 0
 1176 0104 FB68     		ldr	r3, [r7, #12]
 1177 0106 1B6B     		ldr	r3, [r3, #48]
 1178 0108 002B     		cmp	r3, #0
 1179 010a 06D0     		beq	.L64
 695:Drivers/STM32F4xx_HAL_Driver/Src/stm32f4xx_hal_adc_ex.c ****     {
 696:Drivers/STM32F4xx_HAL_Driver/Src/stm32f4xx_hal_adc_ex.c ****       /* Enable the selected ADC DMA request after last transfer */
 697:Drivers/STM32F4xx_HAL_Driver/Src/stm32f4xx_hal_adc_ex.c ****       tmpADC_Common->CCR |= ADC_CCR_DDS;
 1180              		.loc 1 697 0
 1181 010c 7B69     		ldr	r3, [r7, #20]
 1182 010e 5B68     		ldr	r3, [r3, #4]
 1183 0110 43F40052 		orr	r2, r3, #8192
 1184 0114 7B69     		ldr	r3, [r7, #20]
ARM GAS  /var/folders/ck/4xtm3skj1ssb0w4rn7_4q_gw0000gn/T//ccdOVP6q.s 			page 34


 1185 0116 5A60     		str	r2, [r3, #4]
 1186 0118 05E0     		b	.L65
 1187              	.L64:
 698:Drivers/STM32F4xx_HAL_Driver/Src/stm32f4xx_hal_adc_ex.c ****     }
 699:Drivers/STM32F4xx_HAL_Driver/Src/stm32f4xx_hal_adc_ex.c ****     else
 700:Drivers/STM32F4xx_HAL_Driver/Src/stm32f4xx_hal_adc_ex.c ****     {
 701:Drivers/STM32F4xx_HAL_Driver/Src/stm32f4xx_hal_adc_ex.c ****       /* Disable the selected ADC EOC rising on each regular channel conversion */
 702:Drivers/STM32F4xx_HAL_Driver/Src/stm32f4xx_hal_adc_ex.c ****       tmpADC_Common->CCR &= ~ADC_CCR_DDS;
 1188              		.loc 1 702 0
 1189 011a 7B69     		ldr	r3, [r7, #20]
 1190 011c 5B68     		ldr	r3, [r3, #4]
 1191 011e 23F40052 		bic	r2, r3, #8192
 1192 0122 7B69     		ldr	r3, [r7, #20]
 1193 0124 5A60     		str	r2, [r3, #4]
 1194              	.L65:
 703:Drivers/STM32F4xx_HAL_Driver/Src/stm32f4xx_hal_adc_ex.c ****     }
 704:Drivers/STM32F4xx_HAL_Driver/Src/stm32f4xx_hal_adc_ex.c ****     
 705:Drivers/STM32F4xx_HAL_Driver/Src/stm32f4xx_hal_adc_ex.c ****     /* Enable the DMA Stream */
 706:Drivers/STM32F4xx_HAL_Driver/Src/stm32f4xx_hal_adc_ex.c ****     HAL_DMA_Start_IT(hadc->DMA_Handle, (uint32_t)&tmpADC_Common->CDR, (uint32_t)pData, Length);
 1195              		.loc 1 706 0
 1196 0126 FB68     		ldr	r3, [r7, #12]
 1197 0128 9A6B     		ldr	r2, [r3, #56]
 1198 012a 7B69     		ldr	r3, [r7, #20]
 1199 012c 0833     		adds	r3, r3, #8
 1200 012e 1946     		mov	r1, r3
 1201 0130 BB68     		ldr	r3, [r7, #8]
 1202 0132 1046     		mov	r0, r2
 1203 0134 1A46     		mov	r2, r3
 1204 0136 7B68     		ldr	r3, [r7, #4]
 1205 0138 FFF7FEFF 		bl	HAL_DMA_Start_IT
 707:Drivers/STM32F4xx_HAL_Driver/Src/stm32f4xx_hal_adc_ex.c ****     
 708:Drivers/STM32F4xx_HAL_Driver/Src/stm32f4xx_hal_adc_ex.c ****     /* if no external trigger present enable software conversion of regular channels */
 709:Drivers/STM32F4xx_HAL_Driver/Src/stm32f4xx_hal_adc_ex.c ****     if((hadc->Instance->CR2 & ADC_CR2_EXTEN) == RESET) 
 1206              		.loc 1 709 0
 1207 013c FB68     		ldr	r3, [r7, #12]
 1208 013e 1B68     		ldr	r3, [r3]
 1209 0140 9B68     		ldr	r3, [r3, #8]
 1210 0142 03F04053 		and	r3, r3, #805306368
 1211 0146 002B     		cmp	r3, #0
 1212 0148 07D1     		bne	.L60
 710:Drivers/STM32F4xx_HAL_Driver/Src/stm32f4xx_hal_adc_ex.c ****     {
 711:Drivers/STM32F4xx_HAL_Driver/Src/stm32f4xx_hal_adc_ex.c ****       /* Enable the selected ADC software conversion for regular group */
 712:Drivers/STM32F4xx_HAL_Driver/Src/stm32f4xx_hal_adc_ex.c ****       hadc->Instance->CR2 |= (uint32_t)ADC_CR2_SWSTART;
 1213              		.loc 1 712 0
 1214 014a FB68     		ldr	r3, [r7, #12]
 1215 014c 1B68     		ldr	r3, [r3]
 1216 014e FA68     		ldr	r2, [r7, #12]
 1217 0150 1268     		ldr	r2, [r2]
 1218 0152 9268     		ldr	r2, [r2, #8]
 1219 0154 42F08042 		orr	r2, r2, #1073741824
 1220 0158 9A60     		str	r2, [r3, #8]
 1221              	.L60:
 713:Drivers/STM32F4xx_HAL_Driver/Src/stm32f4xx_hal_adc_ex.c ****     }
 714:Drivers/STM32F4xx_HAL_Driver/Src/stm32f4xx_hal_adc_ex.c ****   }
 715:Drivers/STM32F4xx_HAL_Driver/Src/stm32f4xx_hal_adc_ex.c ****   
 716:Drivers/STM32F4xx_HAL_Driver/Src/stm32f4xx_hal_adc_ex.c ****   /* Return function status */
 717:Drivers/STM32F4xx_HAL_Driver/Src/stm32f4xx_hal_adc_ex.c ****   return HAL_OK;
ARM GAS  /var/folders/ck/4xtm3skj1ssb0w4rn7_4q_gw0000gn/T//ccdOVP6q.s 			page 35


 1222              		.loc 1 717 0
 1223 015a 0023     		movs	r3, #0
 1224              	.L56:
 718:Drivers/STM32F4xx_HAL_Driver/Src/stm32f4xx_hal_adc_ex.c **** }
 1225              		.loc 1 718 0
 1226 015c 1846     		mov	r0, r3
 1227 015e 1837     		adds	r7, r7, #24
 1228              	.LCFI38:
 1229              		.cfi_def_cfa_offset 8
 1230 0160 BD46     		mov	sp, r7
 1231              	.LCFI39:
 1232              		.cfi_def_cfa_register 13
 1233              		@ sp needed
 1234 0162 80BD     		pop	{r7, pc}
 1235              	.L67:
 1236              		.align	2
 1237              	.L66:
 1238 0164 00000000 		.word	SystemCoreClock
 1239 0168 83DE1B43 		.word	1125899907
 1240 016c 00000000 		.word	ADC_MultiModeDMAConvCplt
 1241 0170 00000000 		.word	ADC_MultiModeDMAHalfConvCplt
 1242 0174 00000000 		.word	ADC_MultiModeDMAError
 1243 0178 00230140 		.word	1073816320
 1244              		.cfi_endproc
 1245              	.LFE129:
 1247              		.section	.text.HAL_ADCEx_MultiModeStop_DMA,"ax",%progbits
 1248              		.align	2
 1249              		.global	HAL_ADCEx_MultiModeStop_DMA
 1250              		.thumb
 1251              		.thumb_func
 1253              	HAL_ADCEx_MultiModeStop_DMA:
 1254              	.LFB130:
 719:Drivers/STM32F4xx_HAL_Driver/Src/stm32f4xx_hal_adc_ex.c **** 
 720:Drivers/STM32F4xx_HAL_Driver/Src/stm32f4xx_hal_adc_ex.c **** /**
 721:Drivers/STM32F4xx_HAL_Driver/Src/stm32f4xx_hal_adc_ex.c ****   * @brief  Disables ADC DMA (multi-ADC mode) and disables ADC peripheral    
 722:Drivers/STM32F4xx_HAL_Driver/Src/stm32f4xx_hal_adc_ex.c ****   * @param  hadc pointer to a ADC_HandleTypeDef structure that contains
 723:Drivers/STM32F4xx_HAL_Driver/Src/stm32f4xx_hal_adc_ex.c ****   *         the configuration information for the specified ADC.
 724:Drivers/STM32F4xx_HAL_Driver/Src/stm32f4xx_hal_adc_ex.c ****   * @retval HAL status
 725:Drivers/STM32F4xx_HAL_Driver/Src/stm32f4xx_hal_adc_ex.c ****   */
 726:Drivers/STM32F4xx_HAL_Driver/Src/stm32f4xx_hal_adc_ex.c **** HAL_StatusTypeDef HAL_ADCEx_MultiModeStop_DMA(ADC_HandleTypeDef* hadc)
 727:Drivers/STM32F4xx_HAL_Driver/Src/stm32f4xx_hal_adc_ex.c **** {
 1255              		.loc 1 727 0
 1256              		.cfi_startproc
 1257              		@ args = 0, pretend = 0, frame = 16
 1258              		@ frame_needed = 1, uses_anonymous_args = 0
 1259 0000 80B5     		push	{r7, lr}
 1260              	.LCFI40:
 1261              		.cfi_def_cfa_offset 8
 1262              		.cfi_offset 7, -8
 1263              		.cfi_offset 14, -4
 1264 0002 84B0     		sub	sp, sp, #16
 1265              	.LCFI41:
 1266              		.cfi_def_cfa_offset 24
 1267 0004 00AF     		add	r7, sp, #0
 1268              	.LCFI42:
 1269              		.cfi_def_cfa_register 7
 1270 0006 7860     		str	r0, [r7, #4]
ARM GAS  /var/folders/ck/4xtm3skj1ssb0w4rn7_4q_gw0000gn/T//ccdOVP6q.s 			page 36


 728:Drivers/STM32F4xx_HAL_Driver/Src/stm32f4xx_hal_adc_ex.c ****   HAL_StatusTypeDef tmp_hal_status = HAL_OK;
 1271              		.loc 1 728 0
 1272 0008 0023     		movs	r3, #0
 1273 000a FB73     		strb	r3, [r7, #15]
 729:Drivers/STM32F4xx_HAL_Driver/Src/stm32f4xx_hal_adc_ex.c ****   ADC_Common_TypeDef *tmpADC_Common;
 730:Drivers/STM32F4xx_HAL_Driver/Src/stm32f4xx_hal_adc_ex.c ****   
 731:Drivers/STM32F4xx_HAL_Driver/Src/stm32f4xx_hal_adc_ex.c ****   /* Check the parameters */
 732:Drivers/STM32F4xx_HAL_Driver/Src/stm32f4xx_hal_adc_ex.c ****   assert_param(IS_ADC_ALL_INSTANCE(hadc->Instance));
 733:Drivers/STM32F4xx_HAL_Driver/Src/stm32f4xx_hal_adc_ex.c ****   
 734:Drivers/STM32F4xx_HAL_Driver/Src/stm32f4xx_hal_adc_ex.c ****   /* Process locked */
 735:Drivers/STM32F4xx_HAL_Driver/Src/stm32f4xx_hal_adc_ex.c ****   __HAL_LOCK(hadc);
 1274              		.loc 1 735 0
 1275 000c 7B68     		ldr	r3, [r7, #4]
 1276 000e 93F83C30 		ldrb	r3, [r3, #60]	@ zero_extendqisi2
 1277 0012 012B     		cmp	r3, #1
 1278 0014 01D1     		bne	.L69
 1279              		.loc 1 735 0 is_stmt 0 discriminator 1
 1280 0016 0223     		movs	r3, #2
 1281 0018 38E0     		b	.L70
 1282              	.L69:
 1283              		.loc 1 735 0 discriminator 2
 1284 001a 7B68     		ldr	r3, [r7, #4]
 1285 001c 0122     		movs	r2, #1
 1286 001e 83F83C20 		strb	r2, [r3, #60]
 736:Drivers/STM32F4xx_HAL_Driver/Src/stm32f4xx_hal_adc_ex.c ****   
 737:Drivers/STM32F4xx_HAL_Driver/Src/stm32f4xx_hal_adc_ex.c ****   /* Stop potential conversion on going, on regular and injected groups */
 738:Drivers/STM32F4xx_HAL_Driver/Src/stm32f4xx_hal_adc_ex.c ****   /* Disable ADC peripheral */
 739:Drivers/STM32F4xx_HAL_Driver/Src/stm32f4xx_hal_adc_ex.c ****   __HAL_ADC_DISABLE(hadc);
 1287              		.loc 1 739 0 is_stmt 1 discriminator 2
 1288 0022 7B68     		ldr	r3, [r7, #4]
 1289 0024 1B68     		ldr	r3, [r3]
 1290 0026 7A68     		ldr	r2, [r7, #4]
 1291 0028 1268     		ldr	r2, [r2]
 1292 002a 9268     		ldr	r2, [r2, #8]
 1293 002c 22F00102 		bic	r2, r2, #1
 1294 0030 9A60     		str	r2, [r3, #8]
 740:Drivers/STM32F4xx_HAL_Driver/Src/stm32f4xx_hal_adc_ex.c **** 
 741:Drivers/STM32F4xx_HAL_Driver/Src/stm32f4xx_hal_adc_ex.c ****   /* Pointer to the common control register to which is belonging hadc    */
 742:Drivers/STM32F4xx_HAL_Driver/Src/stm32f4xx_hal_adc_ex.c ****   /* (Depending on STM32F4 product, there may be up to 3 ADC and 1 common */
 743:Drivers/STM32F4xx_HAL_Driver/Src/stm32f4xx_hal_adc_ex.c ****   /* control register)                                                    */
 744:Drivers/STM32F4xx_HAL_Driver/Src/stm32f4xx_hal_adc_ex.c ****   tmpADC_Common = ADC_COMMON_REGISTER(hadc);
 1295              		.loc 1 744 0 discriminator 2
 1296 0032 184B     		ldr	r3, .L72
 1297 0034 BB60     		str	r3, [r7, #8]
 745:Drivers/STM32F4xx_HAL_Driver/Src/stm32f4xx_hal_adc_ex.c **** 
 746:Drivers/STM32F4xx_HAL_Driver/Src/stm32f4xx_hal_adc_ex.c ****   /* Check if ADC is effectively disabled */
 747:Drivers/STM32F4xx_HAL_Driver/Src/stm32f4xx_hal_adc_ex.c ****   if(HAL_IS_BIT_CLR(hadc->Instance->CR2, ADC_CR2_ADON))
 1298              		.loc 1 747 0 discriminator 2
 1299 0036 7B68     		ldr	r3, [r7, #4]
 1300 0038 1B68     		ldr	r3, [r3]
 1301 003a 9B68     		ldr	r3, [r3, #8]
 1302 003c 03F00103 		and	r3, r3, #1
 1303 0040 002B     		cmp	r3, #0
 1304 0042 1ED1     		bne	.L71
 748:Drivers/STM32F4xx_HAL_Driver/Src/stm32f4xx_hal_adc_ex.c ****   {
 749:Drivers/STM32F4xx_HAL_Driver/Src/stm32f4xx_hal_adc_ex.c ****     /* Disable the selected ADC DMA mode for multimode */
 750:Drivers/STM32F4xx_HAL_Driver/Src/stm32f4xx_hal_adc_ex.c ****     tmpADC_Common->CCR &= ~ADC_CCR_DDS;
ARM GAS  /var/folders/ck/4xtm3skj1ssb0w4rn7_4q_gw0000gn/T//ccdOVP6q.s 			page 37


 1305              		.loc 1 750 0
 1306 0044 BB68     		ldr	r3, [r7, #8]
 1307 0046 5B68     		ldr	r3, [r3, #4]
 1308 0048 23F40052 		bic	r2, r3, #8192
 1309 004c BB68     		ldr	r3, [r7, #8]
 1310 004e 5A60     		str	r2, [r3, #4]
 751:Drivers/STM32F4xx_HAL_Driver/Src/stm32f4xx_hal_adc_ex.c ****     
 752:Drivers/STM32F4xx_HAL_Driver/Src/stm32f4xx_hal_adc_ex.c ****     /* Disable the DMA channel (in case of DMA in circular mode or stop while */
 753:Drivers/STM32F4xx_HAL_Driver/Src/stm32f4xx_hal_adc_ex.c ****     /* DMA transfer is on going)                                              */
 754:Drivers/STM32F4xx_HAL_Driver/Src/stm32f4xx_hal_adc_ex.c ****     tmp_hal_status = HAL_DMA_Abort(hadc->DMA_Handle);
 1311              		.loc 1 754 0
 1312 0050 7B68     		ldr	r3, [r7, #4]
 1313 0052 9B6B     		ldr	r3, [r3, #56]
 1314 0054 1846     		mov	r0, r3
 1315 0056 FFF7FEFF 		bl	HAL_DMA_Abort
 1316 005a 0346     		mov	r3, r0
 1317 005c FB73     		strb	r3, [r7, #15]
 755:Drivers/STM32F4xx_HAL_Driver/Src/stm32f4xx_hal_adc_ex.c ****     
 756:Drivers/STM32F4xx_HAL_Driver/Src/stm32f4xx_hal_adc_ex.c ****     /* Disable ADC overrun interrupt */
 757:Drivers/STM32F4xx_HAL_Driver/Src/stm32f4xx_hal_adc_ex.c ****     __HAL_ADC_DISABLE_IT(hadc, ADC_IT_OVR);
 1318              		.loc 1 757 0
 1319 005e 7B68     		ldr	r3, [r7, #4]
 1320 0060 1B68     		ldr	r3, [r3]
 1321 0062 7A68     		ldr	r2, [r7, #4]
 1322 0064 1268     		ldr	r2, [r2]
 1323 0066 5268     		ldr	r2, [r2, #4]
 1324 0068 22F08062 		bic	r2, r2, #67108864
 1325 006c 5A60     		str	r2, [r3, #4]
 758:Drivers/STM32F4xx_HAL_Driver/Src/stm32f4xx_hal_adc_ex.c ****     
 759:Drivers/STM32F4xx_HAL_Driver/Src/stm32f4xx_hal_adc_ex.c ****     /* Set ADC state */
 760:Drivers/STM32F4xx_HAL_Driver/Src/stm32f4xx_hal_adc_ex.c ****     ADC_STATE_CLR_SET(hadc->State,
 1326              		.loc 1 760 0
 1327 006e 7B68     		ldr	r3, [r7, #4]
 1328 0070 1B6C     		ldr	r3, [r3, #64]
 1329 0072 23F48853 		bic	r3, r3, #4352
 1330 0076 23F00103 		bic	r3, r3, #1
 1331 007a 43F00102 		orr	r2, r3, #1
 1332 007e 7B68     		ldr	r3, [r7, #4]
 1333 0080 1A64     		str	r2, [r3, #64]
 1334              	.L71:
 761:Drivers/STM32F4xx_HAL_Driver/Src/stm32f4xx_hal_adc_ex.c ****                       HAL_ADC_STATE_REG_BUSY | HAL_ADC_STATE_INJ_BUSY,
 762:Drivers/STM32F4xx_HAL_Driver/Src/stm32f4xx_hal_adc_ex.c ****                       HAL_ADC_STATE_READY);
 763:Drivers/STM32F4xx_HAL_Driver/Src/stm32f4xx_hal_adc_ex.c ****   }
 764:Drivers/STM32F4xx_HAL_Driver/Src/stm32f4xx_hal_adc_ex.c ****   
 765:Drivers/STM32F4xx_HAL_Driver/Src/stm32f4xx_hal_adc_ex.c ****   /* Process unlocked */
 766:Drivers/STM32F4xx_HAL_Driver/Src/stm32f4xx_hal_adc_ex.c ****   __HAL_UNLOCK(hadc);
 1335              		.loc 1 766 0
 1336 0082 7B68     		ldr	r3, [r7, #4]
 1337 0084 0022     		movs	r2, #0
 1338 0086 83F83C20 		strb	r2, [r3, #60]
 767:Drivers/STM32F4xx_HAL_Driver/Src/stm32f4xx_hal_adc_ex.c ****   
 768:Drivers/STM32F4xx_HAL_Driver/Src/stm32f4xx_hal_adc_ex.c ****   /* Return function status */
 769:Drivers/STM32F4xx_HAL_Driver/Src/stm32f4xx_hal_adc_ex.c ****   return tmp_hal_status;
 1339              		.loc 1 769 0
 1340 008a FB7B     		ldrb	r3, [r7, #15]	@ zero_extendqisi2
 1341              	.L70:
 770:Drivers/STM32F4xx_HAL_Driver/Src/stm32f4xx_hal_adc_ex.c **** }
ARM GAS  /var/folders/ck/4xtm3skj1ssb0w4rn7_4q_gw0000gn/T//ccdOVP6q.s 			page 38


 1342              		.loc 1 770 0
 1343 008c 1846     		mov	r0, r3
 1344 008e 1037     		adds	r7, r7, #16
 1345              	.LCFI43:
 1346              		.cfi_def_cfa_offset 8
 1347 0090 BD46     		mov	sp, r7
 1348              	.LCFI44:
 1349              		.cfi_def_cfa_register 13
 1350              		@ sp needed
 1351 0092 80BD     		pop	{r7, pc}
 1352              	.L73:
 1353              		.align	2
 1354              	.L72:
 1355 0094 00230140 		.word	1073816320
 1356              		.cfi_endproc
 1357              	.LFE130:
 1359              		.section	.text.HAL_ADCEx_MultiModeGetValue,"ax",%progbits
 1360              		.align	2
 1361              		.global	HAL_ADCEx_MultiModeGetValue
 1362              		.thumb
 1363              		.thumb_func
 1365              	HAL_ADCEx_MultiModeGetValue:
 1366              	.LFB131:
 771:Drivers/STM32F4xx_HAL_Driver/Src/stm32f4xx_hal_adc_ex.c **** 
 772:Drivers/STM32F4xx_HAL_Driver/Src/stm32f4xx_hal_adc_ex.c **** /**
 773:Drivers/STM32F4xx_HAL_Driver/Src/stm32f4xx_hal_adc_ex.c ****   * @brief  Returns the last ADC1, ADC2 and ADC3 regular conversions results 
 774:Drivers/STM32F4xx_HAL_Driver/Src/stm32f4xx_hal_adc_ex.c ****   *         data in the selected multi mode.
 775:Drivers/STM32F4xx_HAL_Driver/Src/stm32f4xx_hal_adc_ex.c ****   * @param  hadc pointer to a ADC_HandleTypeDef structure that contains
 776:Drivers/STM32F4xx_HAL_Driver/Src/stm32f4xx_hal_adc_ex.c ****   *         the configuration information for the specified ADC.
 777:Drivers/STM32F4xx_HAL_Driver/Src/stm32f4xx_hal_adc_ex.c ****   * @retval The converted data value.
 778:Drivers/STM32F4xx_HAL_Driver/Src/stm32f4xx_hal_adc_ex.c ****   */
 779:Drivers/STM32F4xx_HAL_Driver/Src/stm32f4xx_hal_adc_ex.c **** uint32_t HAL_ADCEx_MultiModeGetValue(ADC_HandleTypeDef* hadc)
 780:Drivers/STM32F4xx_HAL_Driver/Src/stm32f4xx_hal_adc_ex.c **** {
 1367              		.loc 1 780 0
 1368              		.cfi_startproc
 1369              		@ args = 0, pretend = 0, frame = 16
 1370              		@ frame_needed = 1, uses_anonymous_args = 0
 1371              		@ link register save eliminated.
 1372 0000 80B4     		push	{r7}
 1373              	.LCFI45:
 1374              		.cfi_def_cfa_offset 4
 1375              		.cfi_offset 7, -4
 1376 0002 85B0     		sub	sp, sp, #20
 1377              	.LCFI46:
 1378              		.cfi_def_cfa_offset 24
 1379 0004 00AF     		add	r7, sp, #0
 1380              	.LCFI47:
 1381              		.cfi_def_cfa_register 7
 1382 0006 7860     		str	r0, [r7, #4]
 781:Drivers/STM32F4xx_HAL_Driver/Src/stm32f4xx_hal_adc_ex.c ****   ADC_Common_TypeDef *tmpADC_Common;
 782:Drivers/STM32F4xx_HAL_Driver/Src/stm32f4xx_hal_adc_ex.c **** 
 783:Drivers/STM32F4xx_HAL_Driver/Src/stm32f4xx_hal_adc_ex.c ****   /* Pointer to the common control register to which is belonging hadc    */
 784:Drivers/STM32F4xx_HAL_Driver/Src/stm32f4xx_hal_adc_ex.c ****   /* (Depending on STM32F4 product, there may be up to 3 ADC and 1 common */
 785:Drivers/STM32F4xx_HAL_Driver/Src/stm32f4xx_hal_adc_ex.c ****   /* control register)                                                    */
 786:Drivers/STM32F4xx_HAL_Driver/Src/stm32f4xx_hal_adc_ex.c ****   tmpADC_Common = ADC_COMMON_REGISTER(hadc);
 1383              		.loc 1 786 0
 1384 0008 044B     		ldr	r3, .L76
ARM GAS  /var/folders/ck/4xtm3skj1ssb0w4rn7_4q_gw0000gn/T//ccdOVP6q.s 			page 39


 1385 000a FB60     		str	r3, [r7, #12]
 787:Drivers/STM32F4xx_HAL_Driver/Src/stm32f4xx_hal_adc_ex.c **** 
 788:Drivers/STM32F4xx_HAL_Driver/Src/stm32f4xx_hal_adc_ex.c ****   /* Return the multi mode conversion value */
 789:Drivers/STM32F4xx_HAL_Driver/Src/stm32f4xx_hal_adc_ex.c ****   return tmpADC_Common->CDR;
 1386              		.loc 1 789 0
 1387 000c FB68     		ldr	r3, [r7, #12]
 1388 000e 9B68     		ldr	r3, [r3, #8]
 790:Drivers/STM32F4xx_HAL_Driver/Src/stm32f4xx_hal_adc_ex.c **** }
 1389              		.loc 1 790 0
 1390 0010 1846     		mov	r0, r3
 1391 0012 1437     		adds	r7, r7, #20
 1392              	.LCFI48:
 1393              		.cfi_def_cfa_offset 4
 1394 0014 BD46     		mov	sp, r7
 1395              	.LCFI49:
 1396              		.cfi_def_cfa_register 13
 1397              		@ sp needed
 1398 0016 5DF8047B 		ldr	r7, [sp], #4
 1399              	.LCFI50:
 1400              		.cfi_restore 7
 1401              		.cfi_def_cfa_offset 0
 1402 001a 7047     		bx	lr
 1403              	.L77:
 1404              		.align	2
 1405              	.L76:
 1406 001c 00230140 		.word	1073816320
 1407              		.cfi_endproc
 1408              	.LFE131:
 1410              		.section	.text.HAL_ADCEx_InjectedConvCpltCallback,"ax",%progbits
 1411              		.align	2
 1412              		.weak	HAL_ADCEx_InjectedConvCpltCallback
 1413              		.thumb
 1414              		.thumb_func
 1416              	HAL_ADCEx_InjectedConvCpltCallback:
 1417              	.LFB132:
 791:Drivers/STM32F4xx_HAL_Driver/Src/stm32f4xx_hal_adc_ex.c **** 
 792:Drivers/STM32F4xx_HAL_Driver/Src/stm32f4xx_hal_adc_ex.c **** /**
 793:Drivers/STM32F4xx_HAL_Driver/Src/stm32f4xx_hal_adc_ex.c ****   * @brief  Injected conversion complete callback in non blocking mode 
 794:Drivers/STM32F4xx_HAL_Driver/Src/stm32f4xx_hal_adc_ex.c ****   * @param  hadc pointer to a ADC_HandleTypeDef structure that contains
 795:Drivers/STM32F4xx_HAL_Driver/Src/stm32f4xx_hal_adc_ex.c ****   *         the configuration information for the specified ADC.
 796:Drivers/STM32F4xx_HAL_Driver/Src/stm32f4xx_hal_adc_ex.c ****   * @retval None
 797:Drivers/STM32F4xx_HAL_Driver/Src/stm32f4xx_hal_adc_ex.c ****   */
 798:Drivers/STM32F4xx_HAL_Driver/Src/stm32f4xx_hal_adc_ex.c **** __weak void HAL_ADCEx_InjectedConvCpltCallback(ADC_HandleTypeDef* hadc)
 799:Drivers/STM32F4xx_HAL_Driver/Src/stm32f4xx_hal_adc_ex.c **** {
 1418              		.loc 1 799 0
 1419              		.cfi_startproc
 1420              		@ args = 0, pretend = 0, frame = 8
 1421              		@ frame_needed = 1, uses_anonymous_args = 0
 1422              		@ link register save eliminated.
 1423 0000 80B4     		push	{r7}
 1424              	.LCFI51:
 1425              		.cfi_def_cfa_offset 4
 1426              		.cfi_offset 7, -4
 1427 0002 83B0     		sub	sp, sp, #12
 1428              	.LCFI52:
 1429              		.cfi_def_cfa_offset 16
 1430 0004 00AF     		add	r7, sp, #0
ARM GAS  /var/folders/ck/4xtm3skj1ssb0w4rn7_4q_gw0000gn/T//ccdOVP6q.s 			page 40


 1431              	.LCFI53:
 1432              		.cfi_def_cfa_register 7
 1433 0006 7860     		str	r0, [r7, #4]
 800:Drivers/STM32F4xx_HAL_Driver/Src/stm32f4xx_hal_adc_ex.c ****   /* Prevent unused argument(s) compilation warning */
 801:Drivers/STM32F4xx_HAL_Driver/Src/stm32f4xx_hal_adc_ex.c ****   UNUSED(hadc);
 802:Drivers/STM32F4xx_HAL_Driver/Src/stm32f4xx_hal_adc_ex.c ****   /* NOTE : This function Should not be modified, when the callback is needed,
 803:Drivers/STM32F4xx_HAL_Driver/Src/stm32f4xx_hal_adc_ex.c ****             the HAL_ADC_InjectedConvCpltCallback could be implemented in the user file
 804:Drivers/STM32F4xx_HAL_Driver/Src/stm32f4xx_hal_adc_ex.c ****    */
 805:Drivers/STM32F4xx_HAL_Driver/Src/stm32f4xx_hal_adc_ex.c **** }
 1434              		.loc 1 805 0
 1435 0008 0C37     		adds	r7, r7, #12
 1436              	.LCFI54:
 1437              		.cfi_def_cfa_offset 4
 1438 000a BD46     		mov	sp, r7
 1439              	.LCFI55:
 1440              		.cfi_def_cfa_register 13
 1441              		@ sp needed
 1442 000c 5DF8047B 		ldr	r7, [sp], #4
 1443              	.LCFI56:
 1444              		.cfi_restore 7
 1445              		.cfi_def_cfa_offset 0
 1446 0010 7047     		bx	lr
 1447              		.cfi_endproc
 1448              	.LFE132:
 1450 0012 00BF     		.section	.text.HAL_ADCEx_InjectedConfigChannel,"ax",%progbits
 1451              		.align	2
 1452              		.global	HAL_ADCEx_InjectedConfigChannel
 1453              		.thumb
 1454              		.thumb_func
 1456              	HAL_ADCEx_InjectedConfigChannel:
 1457              	.LFB133:
 806:Drivers/STM32F4xx_HAL_Driver/Src/stm32f4xx_hal_adc_ex.c **** 
 807:Drivers/STM32F4xx_HAL_Driver/Src/stm32f4xx_hal_adc_ex.c **** /**
 808:Drivers/STM32F4xx_HAL_Driver/Src/stm32f4xx_hal_adc_ex.c ****   * @brief  Configures for the selected ADC injected channel its corresponding
 809:Drivers/STM32F4xx_HAL_Driver/Src/stm32f4xx_hal_adc_ex.c ****   *         rank in the sequencer and its sample time.
 810:Drivers/STM32F4xx_HAL_Driver/Src/stm32f4xx_hal_adc_ex.c ****   * @param  hadc pointer to a ADC_HandleTypeDef structure that contains
 811:Drivers/STM32F4xx_HAL_Driver/Src/stm32f4xx_hal_adc_ex.c ****   *         the configuration information for the specified ADC.
 812:Drivers/STM32F4xx_HAL_Driver/Src/stm32f4xx_hal_adc_ex.c ****   * @param  sConfigInjected ADC configuration structure for injected channel. 
 813:Drivers/STM32F4xx_HAL_Driver/Src/stm32f4xx_hal_adc_ex.c ****   * @retval None
 814:Drivers/STM32F4xx_HAL_Driver/Src/stm32f4xx_hal_adc_ex.c ****   */
 815:Drivers/STM32F4xx_HAL_Driver/Src/stm32f4xx_hal_adc_ex.c **** HAL_StatusTypeDef HAL_ADCEx_InjectedConfigChannel(ADC_HandleTypeDef* hadc, ADC_InjectionConfTypeDef
 816:Drivers/STM32F4xx_HAL_Driver/Src/stm32f4xx_hal_adc_ex.c **** {
 1458              		.loc 1 816 0
 1459              		.cfi_startproc
 1460              		@ args = 0, pretend = 0, frame = 16
 1461              		@ frame_needed = 1, uses_anonymous_args = 0
 1462              		@ link register save eliminated.
 1463 0000 90B4     		push	{r4, r7}
 1464              	.LCFI57:
 1465              		.cfi_def_cfa_offset 8
 1466              		.cfi_offset 4, -8
 1467              		.cfi_offset 7, -4
 1468 0002 84B0     		sub	sp, sp, #16
 1469              	.LCFI58:
 1470              		.cfi_def_cfa_offset 24
 1471 0004 00AF     		add	r7, sp, #0
 1472              	.LCFI59:
ARM GAS  /var/folders/ck/4xtm3skj1ssb0w4rn7_4q_gw0000gn/T//ccdOVP6q.s 			page 41


 1473              		.cfi_def_cfa_register 7
 1474 0006 7860     		str	r0, [r7, #4]
 1475 0008 3960     		str	r1, [r7]
 817:Drivers/STM32F4xx_HAL_Driver/Src/stm32f4xx_hal_adc_ex.c ****   
 818:Drivers/STM32F4xx_HAL_Driver/Src/stm32f4xx_hal_adc_ex.c **** #ifdef USE_FULL_ASSERT  
 819:Drivers/STM32F4xx_HAL_Driver/Src/stm32f4xx_hal_adc_ex.c ****   uint32_t tmp = 0U;
 820:Drivers/STM32F4xx_HAL_Driver/Src/stm32f4xx_hal_adc_ex.c ****   
 821:Drivers/STM32F4xx_HAL_Driver/Src/stm32f4xx_hal_adc_ex.c **** #endif /* USE_FULL_ASSERT  */
 822:Drivers/STM32F4xx_HAL_Driver/Src/stm32f4xx_hal_adc_ex.c **** 
 823:Drivers/STM32F4xx_HAL_Driver/Src/stm32f4xx_hal_adc_ex.c ****   ADC_Common_TypeDef *tmpADC_Common;
 824:Drivers/STM32F4xx_HAL_Driver/Src/stm32f4xx_hal_adc_ex.c **** 
 825:Drivers/STM32F4xx_HAL_Driver/Src/stm32f4xx_hal_adc_ex.c ****   /* Check the parameters */
 826:Drivers/STM32F4xx_HAL_Driver/Src/stm32f4xx_hal_adc_ex.c ****   assert_param(IS_ADC_CHANNEL(sConfigInjected->InjectedChannel));
 827:Drivers/STM32F4xx_HAL_Driver/Src/stm32f4xx_hal_adc_ex.c ****   assert_param(IS_ADC_INJECTED_RANK(sConfigInjected->InjectedRank));
 828:Drivers/STM32F4xx_HAL_Driver/Src/stm32f4xx_hal_adc_ex.c ****   assert_param(IS_ADC_SAMPLE_TIME(sConfigInjected->InjectedSamplingTime));
 829:Drivers/STM32F4xx_HAL_Driver/Src/stm32f4xx_hal_adc_ex.c ****   assert_param(IS_ADC_EXT_INJEC_TRIG(sConfigInjected->ExternalTrigInjecConv));
 830:Drivers/STM32F4xx_HAL_Driver/Src/stm32f4xx_hal_adc_ex.c ****   assert_param(IS_ADC_INJECTED_LENGTH(sConfigInjected->InjectedNbrOfConversion));
 831:Drivers/STM32F4xx_HAL_Driver/Src/stm32f4xx_hal_adc_ex.c ****   assert_param(IS_FUNCTIONAL_STATE(sConfigInjected->AutoInjectedConv));
 832:Drivers/STM32F4xx_HAL_Driver/Src/stm32f4xx_hal_adc_ex.c ****   assert_param(IS_FUNCTIONAL_STATE(sConfigInjected->InjectedDiscontinuousConvMode));
 833:Drivers/STM32F4xx_HAL_Driver/Src/stm32f4xx_hal_adc_ex.c **** 
 834:Drivers/STM32F4xx_HAL_Driver/Src/stm32f4xx_hal_adc_ex.c **** #ifdef USE_FULL_ASSERT
 835:Drivers/STM32F4xx_HAL_Driver/Src/stm32f4xx_hal_adc_ex.c ****   tmp = ADC_GET_RESOLUTION(hadc);
 836:Drivers/STM32F4xx_HAL_Driver/Src/stm32f4xx_hal_adc_ex.c ****   assert_param(IS_ADC_RANGE(tmp, sConfigInjected->InjectedOffset));
 837:Drivers/STM32F4xx_HAL_Driver/Src/stm32f4xx_hal_adc_ex.c **** #endif /* USE_FULL_ASSERT  */
 838:Drivers/STM32F4xx_HAL_Driver/Src/stm32f4xx_hal_adc_ex.c **** 
 839:Drivers/STM32F4xx_HAL_Driver/Src/stm32f4xx_hal_adc_ex.c ****   if(sConfigInjected->ExternalTrigInjecConv != ADC_INJECTED_SOFTWARE_START)
 840:Drivers/STM32F4xx_HAL_Driver/Src/stm32f4xx_hal_adc_ex.c ****   {
 841:Drivers/STM32F4xx_HAL_Driver/Src/stm32f4xx_hal_adc_ex.c ****     assert_param(IS_ADC_EXT_INJEC_TRIG_EDGE(sConfigInjected->ExternalTrigInjecConvEdge));
 842:Drivers/STM32F4xx_HAL_Driver/Src/stm32f4xx_hal_adc_ex.c ****   }
 843:Drivers/STM32F4xx_HAL_Driver/Src/stm32f4xx_hal_adc_ex.c **** 
 844:Drivers/STM32F4xx_HAL_Driver/Src/stm32f4xx_hal_adc_ex.c ****   /* Process locked */
 845:Drivers/STM32F4xx_HAL_Driver/Src/stm32f4xx_hal_adc_ex.c ****   __HAL_LOCK(hadc);
 1476              		.loc 1 845 0
 1477 000a 7B68     		ldr	r3, [r7, #4]
 1478 000c 93F83C30 		ldrb	r3, [r3, #60]	@ zero_extendqisi2
 1479 0010 012B     		cmp	r3, #1
 1480 0012 01D1     		bne	.L80
 1481              		.loc 1 845 0 is_stmt 0 discriminator 1
 1482 0014 0223     		movs	r3, #2
 1483 0016 7CE1     		b	.L81
 1484              	.L80:
 1485              		.loc 1 845 0 discriminator 2
 1486 0018 7B68     		ldr	r3, [r7, #4]
 1487 001a 0122     		movs	r2, #1
 1488 001c 83F83C20 		strb	r2, [r3, #60]
 846:Drivers/STM32F4xx_HAL_Driver/Src/stm32f4xx_hal_adc_ex.c ****   
 847:Drivers/STM32F4xx_HAL_Driver/Src/stm32f4xx_hal_adc_ex.c ****   /* if ADC_Channel_10 ... ADC_Channel_18 is selected */
 848:Drivers/STM32F4xx_HAL_Driver/Src/stm32f4xx_hal_adc_ex.c ****   if (sConfigInjected->InjectedChannel > ADC_CHANNEL_9)
 1489              		.loc 1 848 0 is_stmt 1 discriminator 2
 1490 0020 3B68     		ldr	r3, [r7]
 1491 0022 1B68     		ldr	r3, [r3]
 1492 0024 092B     		cmp	r3, #9
 1493 0026 26D9     		bls	.L82
 849:Drivers/STM32F4xx_HAL_Driver/Src/stm32f4xx_hal_adc_ex.c ****   {
 850:Drivers/STM32F4xx_HAL_Driver/Src/stm32f4xx_hal_adc_ex.c ****     /* Clear the old sample time */
 851:Drivers/STM32F4xx_HAL_Driver/Src/stm32f4xx_hal_adc_ex.c ****     hadc->Instance->SMPR1 &= ~ADC_SMPR1(ADC_SMPR1_SMP10, sConfigInjected->InjectedChannel);
 1494              		.loc 1 851 0
ARM GAS  /var/folders/ck/4xtm3skj1ssb0w4rn7_4q_gw0000gn/T//ccdOVP6q.s 			page 42


 1495 0028 7B68     		ldr	r3, [r7, #4]
 1496 002a 1A68     		ldr	r2, [r3]
 1497 002c 7B68     		ldr	r3, [r7, #4]
 1498 002e 1B68     		ldr	r3, [r3]
 1499 0030 D968     		ldr	r1, [r3, #12]
 1500 0032 3B68     		ldr	r3, [r7]
 1501 0034 1B68     		ldr	r3, [r3]
 1502 0036 9BB2     		uxth	r3, r3
 1503 0038 1846     		mov	r0, r3
 1504 003a 0346     		mov	r3, r0
 1505 003c 5B00     		lsls	r3, r3, #1
 1506 003e 0344     		add	r3, r3, r0
 1507 0040 1E3B     		subs	r3, r3, #30
 1508 0042 1846     		mov	r0, r3
 1509 0044 0723     		movs	r3, #7
 1510 0046 8340     		lsls	r3, r3, r0
 1511 0048 DB43     		mvns	r3, r3
 1512 004a 0B40     		ands	r3, r3, r1
 1513 004c D360     		str	r3, [r2, #12]
 852:Drivers/STM32F4xx_HAL_Driver/Src/stm32f4xx_hal_adc_ex.c ****     
 853:Drivers/STM32F4xx_HAL_Driver/Src/stm32f4xx_hal_adc_ex.c ****     /* Set the new sample time */
 854:Drivers/STM32F4xx_HAL_Driver/Src/stm32f4xx_hal_adc_ex.c ****     hadc->Instance->SMPR1 |= ADC_SMPR1(sConfigInjected->InjectedSamplingTime, sConfigInjected->Inje
 1514              		.loc 1 854 0
 1515 004e 7B68     		ldr	r3, [r7, #4]
 1516 0050 1A68     		ldr	r2, [r3]
 1517 0052 7B68     		ldr	r3, [r7, #4]
 1518 0054 1B68     		ldr	r3, [r3]
 1519 0056 D968     		ldr	r1, [r3, #12]
 1520 0058 3B68     		ldr	r3, [r7]
 1521 005a 9868     		ldr	r0, [r3, #8]
 1522 005c 3B68     		ldr	r3, [r7]
 1523 005e 1B68     		ldr	r3, [r3]
 1524 0060 9BB2     		uxth	r3, r3
 1525 0062 1C46     		mov	r4, r3
 1526 0064 2346     		mov	r3, r4
 1527 0066 5B00     		lsls	r3, r3, #1
 1528 0068 2344     		add	r3, r3, r4
 1529 006a 1E3B     		subs	r3, r3, #30
 1530 006c 00FA03F3 		lsl	r3, r0, r3
 1531 0070 0B43     		orrs	r3, r3, r1
 1532 0072 D360     		str	r3, [r2, #12]
 1533 0074 23E0     		b	.L83
 1534              	.L82:
 855:Drivers/STM32F4xx_HAL_Driver/Src/stm32f4xx_hal_adc_ex.c ****   }
 856:Drivers/STM32F4xx_HAL_Driver/Src/stm32f4xx_hal_adc_ex.c ****   else /* ADC_Channel include in ADC_Channel_[0..9] */
 857:Drivers/STM32F4xx_HAL_Driver/Src/stm32f4xx_hal_adc_ex.c ****   {
 858:Drivers/STM32F4xx_HAL_Driver/Src/stm32f4xx_hal_adc_ex.c ****     /* Clear the old sample time */
 859:Drivers/STM32F4xx_HAL_Driver/Src/stm32f4xx_hal_adc_ex.c ****     hadc->Instance->SMPR2 &= ~ADC_SMPR2(ADC_SMPR2_SMP0, sConfigInjected->InjectedChannel);
 1535              		.loc 1 859 0
 1536 0076 7B68     		ldr	r3, [r7, #4]
 1537 0078 1A68     		ldr	r2, [r3]
 1538 007a 7B68     		ldr	r3, [r7, #4]
 1539 007c 1B68     		ldr	r3, [r3]
 1540 007e 1969     		ldr	r1, [r3, #16]
 1541 0080 3B68     		ldr	r3, [r7]
 1542 0082 1B68     		ldr	r3, [r3]
 1543 0084 9BB2     		uxth	r3, r3
ARM GAS  /var/folders/ck/4xtm3skj1ssb0w4rn7_4q_gw0000gn/T//ccdOVP6q.s 			page 43


 1544 0086 1846     		mov	r0, r3
 1545 0088 0346     		mov	r3, r0
 1546 008a 5B00     		lsls	r3, r3, #1
 1547 008c 0344     		add	r3, r3, r0
 1548 008e 1846     		mov	r0, r3
 1549 0090 0723     		movs	r3, #7
 1550 0092 8340     		lsls	r3, r3, r0
 1551 0094 DB43     		mvns	r3, r3
 1552 0096 0B40     		ands	r3, r3, r1
 1553 0098 1361     		str	r3, [r2, #16]
 860:Drivers/STM32F4xx_HAL_Driver/Src/stm32f4xx_hal_adc_ex.c ****     
 861:Drivers/STM32F4xx_HAL_Driver/Src/stm32f4xx_hal_adc_ex.c ****     /* Set the new sample time */
 862:Drivers/STM32F4xx_HAL_Driver/Src/stm32f4xx_hal_adc_ex.c ****     hadc->Instance->SMPR2 |= ADC_SMPR2(sConfigInjected->InjectedSamplingTime, sConfigInjected->Inje
 1554              		.loc 1 862 0
 1555 009a 7B68     		ldr	r3, [r7, #4]
 1556 009c 1A68     		ldr	r2, [r3]
 1557 009e 7B68     		ldr	r3, [r7, #4]
 1558 00a0 1B68     		ldr	r3, [r3]
 1559 00a2 1969     		ldr	r1, [r3, #16]
 1560 00a4 3B68     		ldr	r3, [r7]
 1561 00a6 9868     		ldr	r0, [r3, #8]
 1562 00a8 3B68     		ldr	r3, [r7]
 1563 00aa 1B68     		ldr	r3, [r3]
 1564 00ac 9BB2     		uxth	r3, r3
 1565 00ae 1C46     		mov	r4, r3
 1566 00b0 2346     		mov	r3, r4
 1567 00b2 5B00     		lsls	r3, r3, #1
 1568 00b4 2344     		add	r3, r3, r4
 1569 00b6 00FA03F3 		lsl	r3, r0, r3
 1570 00ba 0B43     		orrs	r3, r3, r1
 1571 00bc 1361     		str	r3, [r2, #16]
 1572              	.L83:
 863:Drivers/STM32F4xx_HAL_Driver/Src/stm32f4xx_hal_adc_ex.c ****   }
 864:Drivers/STM32F4xx_HAL_Driver/Src/stm32f4xx_hal_adc_ex.c ****   
 865:Drivers/STM32F4xx_HAL_Driver/Src/stm32f4xx_hal_adc_ex.c ****   /*---------------------------- ADCx JSQR Configuration -----------------*/
 866:Drivers/STM32F4xx_HAL_Driver/Src/stm32f4xx_hal_adc_ex.c ****   hadc->Instance->JSQR &= ~(ADC_JSQR_JL);
 1573              		.loc 1 866 0
 1574 00be 7B68     		ldr	r3, [r7, #4]
 1575 00c0 1B68     		ldr	r3, [r3]
 1576 00c2 7A68     		ldr	r2, [r7, #4]
 1577 00c4 1268     		ldr	r2, [r2]
 1578 00c6 926B     		ldr	r2, [r2, #56]
 1579 00c8 22F44012 		bic	r2, r2, #3145728
 1580 00cc 9A63     		str	r2, [r3, #56]
 867:Drivers/STM32F4xx_HAL_Driver/Src/stm32f4xx_hal_adc_ex.c ****   hadc->Instance->JSQR |=  ADC_SQR1(sConfigInjected->InjectedNbrOfConversion);
 1581              		.loc 1 867 0
 1582 00ce 7B68     		ldr	r3, [r7, #4]
 1583 00d0 1B68     		ldr	r3, [r3]
 1584 00d2 7A68     		ldr	r2, [r7, #4]
 1585 00d4 1268     		ldr	r2, [r2]
 1586 00d6 916B     		ldr	r1, [r2, #56]
 1587 00d8 3A68     		ldr	r2, [r7]
 1588 00da 1269     		ldr	r2, [r2, #16]
 1589 00dc 013A     		subs	r2, r2, #1
 1590 00de 1205     		lsls	r2, r2, #20
 1591 00e0 0A43     		orrs	r2, r2, r1
 1592 00e2 9A63     		str	r2, [r3, #56]
ARM GAS  /var/folders/ck/4xtm3skj1ssb0w4rn7_4q_gw0000gn/T//ccdOVP6q.s 			page 44


 868:Drivers/STM32F4xx_HAL_Driver/Src/stm32f4xx_hal_adc_ex.c ****   
 869:Drivers/STM32F4xx_HAL_Driver/Src/stm32f4xx_hal_adc_ex.c ****   /* Rank configuration */
 870:Drivers/STM32F4xx_HAL_Driver/Src/stm32f4xx_hal_adc_ex.c ****   
 871:Drivers/STM32F4xx_HAL_Driver/Src/stm32f4xx_hal_adc_ex.c ****   /* Clear the old SQx bits for the selected rank */
 872:Drivers/STM32F4xx_HAL_Driver/Src/stm32f4xx_hal_adc_ex.c ****   hadc->Instance->JSQR &= ~ADC_JSQR(ADC_JSQR_JSQ1, sConfigInjected->InjectedRank,sConfigInjected->I
 1593              		.loc 1 872 0
 1594 00e4 7B68     		ldr	r3, [r7, #4]
 1595 00e6 1A68     		ldr	r2, [r3]
 1596 00e8 7B68     		ldr	r3, [r7, #4]
 1597 00ea 1B68     		ldr	r3, [r3]
 1598 00ec 996B     		ldr	r1, [r3, #56]
 1599 00ee 3B68     		ldr	r3, [r7]
 1600 00f0 5B68     		ldr	r3, [r3, #4]
 1601 00f2 D8B2     		uxtb	r0, r3
 1602 00f4 3B68     		ldr	r3, [r7]
 1603 00f6 1B69     		ldr	r3, [r3, #16]
 1604 00f8 DBB2     		uxtb	r3, r3
 1605 00fa C31A     		subs	r3, r0, r3
 1606 00fc DBB2     		uxtb	r3, r3
 1607 00fe 0333     		adds	r3, r3, #3
 1608 0100 DBB2     		uxtb	r3, r3
 1609 0102 1846     		mov	r0, r3
 1610 0104 0346     		mov	r3, r0
 1611 0106 9B00     		lsls	r3, r3, #2
 1612 0108 0344     		add	r3, r3, r0
 1613 010a 1846     		mov	r0, r3
 1614 010c 1F23     		movs	r3, #31
 1615 010e 8340     		lsls	r3, r3, r0
 1616 0110 DB43     		mvns	r3, r3
 1617 0112 0B40     		ands	r3, r3, r1
 1618 0114 9363     		str	r3, [r2, #56]
 873:Drivers/STM32F4xx_HAL_Driver/Src/stm32f4xx_hal_adc_ex.c ****    
 874:Drivers/STM32F4xx_HAL_Driver/Src/stm32f4xx_hal_adc_ex.c ****   /* Set the SQx bits for the selected rank */
 875:Drivers/STM32F4xx_HAL_Driver/Src/stm32f4xx_hal_adc_ex.c ****   hadc->Instance->JSQR |= ADC_JSQR(sConfigInjected->InjectedChannel, sConfigInjected->InjectedRank,
 1619              		.loc 1 875 0
 1620 0116 7B68     		ldr	r3, [r7, #4]
 1621 0118 1A68     		ldr	r2, [r3]
 1622 011a 7B68     		ldr	r3, [r7, #4]
 1623 011c 1B68     		ldr	r3, [r3]
 1624 011e 996B     		ldr	r1, [r3, #56]
 1625 0120 3B68     		ldr	r3, [r7]
 1626 0122 1B68     		ldr	r3, [r3]
 1627 0124 9BB2     		uxth	r3, r3
 1628 0126 1C46     		mov	r4, r3
 1629 0128 3B68     		ldr	r3, [r7]
 1630 012a 5B68     		ldr	r3, [r3, #4]
 1631 012c D8B2     		uxtb	r0, r3
 1632 012e 3B68     		ldr	r3, [r7]
 1633 0130 1B69     		ldr	r3, [r3, #16]
 1634 0132 DBB2     		uxtb	r3, r3
 1635 0134 C31A     		subs	r3, r0, r3
 1636 0136 DBB2     		uxtb	r3, r3
 1637 0138 0333     		adds	r3, r3, #3
 1638 013a DBB2     		uxtb	r3, r3
 1639 013c 1846     		mov	r0, r3
 1640 013e 0346     		mov	r3, r0
 1641 0140 9B00     		lsls	r3, r3, #2
ARM GAS  /var/folders/ck/4xtm3skj1ssb0w4rn7_4q_gw0000gn/T//ccdOVP6q.s 			page 45


 1642 0142 0344     		add	r3, r3, r0
 1643 0144 04FA03F3 		lsl	r3, r4, r3
 1644 0148 0B43     		orrs	r3, r3, r1
 1645 014a 9363     		str	r3, [r2, #56]
 876:Drivers/STM32F4xx_HAL_Driver/Src/stm32f4xx_hal_adc_ex.c **** 
 877:Drivers/STM32F4xx_HAL_Driver/Src/stm32f4xx_hal_adc_ex.c ****   /* Enable external trigger if trigger selection is different of software  */
 878:Drivers/STM32F4xx_HAL_Driver/Src/stm32f4xx_hal_adc_ex.c ****   /* start.                                                                 */
 879:Drivers/STM32F4xx_HAL_Driver/Src/stm32f4xx_hal_adc_ex.c ****   /* Note: This configuration keeps the hardware feature of parameter       */
 880:Drivers/STM32F4xx_HAL_Driver/Src/stm32f4xx_hal_adc_ex.c ****   /*       ExternalTrigConvEdge "trigger edge none" equivalent to           */
 881:Drivers/STM32F4xx_HAL_Driver/Src/stm32f4xx_hal_adc_ex.c ****   /*       software start.                                                  */ 
 882:Drivers/STM32F4xx_HAL_Driver/Src/stm32f4xx_hal_adc_ex.c ****   if(sConfigInjected->ExternalTrigInjecConv != ADC_INJECTED_SOFTWARE_START)
 1646              		.loc 1 882 0
 1647 014c 3B68     		ldr	r3, [r7]
 1648 014e DB69     		ldr	r3, [r3, #28]
 1649 0150 724A     		ldr	r2, .L99
 1650 0152 9342     		cmp	r3, r2
 1651 0154 22D0     		beq	.L84
 883:Drivers/STM32F4xx_HAL_Driver/Src/stm32f4xx_hal_adc_ex.c ****   {  
 884:Drivers/STM32F4xx_HAL_Driver/Src/stm32f4xx_hal_adc_ex.c ****     /* Select external trigger to start conversion */
 885:Drivers/STM32F4xx_HAL_Driver/Src/stm32f4xx_hal_adc_ex.c ****     hadc->Instance->CR2 &= ~(ADC_CR2_JEXTSEL);
 1652              		.loc 1 885 0
 1653 0156 7B68     		ldr	r3, [r7, #4]
 1654 0158 1B68     		ldr	r3, [r3]
 1655 015a 7A68     		ldr	r2, [r7, #4]
 1656 015c 1268     		ldr	r2, [r2]
 1657 015e 9268     		ldr	r2, [r2, #8]
 1658 0160 22F47022 		bic	r2, r2, #983040
 1659 0164 9A60     		str	r2, [r3, #8]
 886:Drivers/STM32F4xx_HAL_Driver/Src/stm32f4xx_hal_adc_ex.c ****     hadc->Instance->CR2 |=  sConfigInjected->ExternalTrigInjecConv;
 1660              		.loc 1 886 0
 1661 0166 7B68     		ldr	r3, [r7, #4]
 1662 0168 1B68     		ldr	r3, [r3]
 1663 016a 7A68     		ldr	r2, [r7, #4]
 1664 016c 1268     		ldr	r2, [r2]
 1665 016e 9168     		ldr	r1, [r2, #8]
 1666 0170 3A68     		ldr	r2, [r7]
 1667 0172 D269     		ldr	r2, [r2, #28]
 1668 0174 0A43     		orrs	r2, r2, r1
 1669 0176 9A60     		str	r2, [r3, #8]
 887:Drivers/STM32F4xx_HAL_Driver/Src/stm32f4xx_hal_adc_ex.c ****     
 888:Drivers/STM32F4xx_HAL_Driver/Src/stm32f4xx_hal_adc_ex.c ****     /* Select external trigger polarity */
 889:Drivers/STM32F4xx_HAL_Driver/Src/stm32f4xx_hal_adc_ex.c ****     hadc->Instance->CR2 &= ~(ADC_CR2_JEXTEN);
 1670              		.loc 1 889 0
 1671 0178 7B68     		ldr	r3, [r7, #4]
 1672 017a 1B68     		ldr	r3, [r3]
 1673 017c 7A68     		ldr	r2, [r7, #4]
 1674 017e 1268     		ldr	r2, [r2]
 1675 0180 9268     		ldr	r2, [r2, #8]
 1676 0182 22F44012 		bic	r2, r2, #3145728
 1677 0186 9A60     		str	r2, [r3, #8]
 890:Drivers/STM32F4xx_HAL_Driver/Src/stm32f4xx_hal_adc_ex.c ****     hadc->Instance->CR2 |= sConfigInjected->ExternalTrigInjecConvEdge;
 1678              		.loc 1 890 0
 1679 0188 7B68     		ldr	r3, [r7, #4]
 1680 018a 1B68     		ldr	r3, [r3]
 1681 018c 7A68     		ldr	r2, [r7, #4]
 1682 018e 1268     		ldr	r2, [r2]
 1683 0190 9168     		ldr	r1, [r2, #8]
ARM GAS  /var/folders/ck/4xtm3skj1ssb0w4rn7_4q_gw0000gn/T//ccdOVP6q.s 			page 46


 1684 0192 3A68     		ldr	r2, [r7]
 1685 0194 126A     		ldr	r2, [r2, #32]
 1686 0196 0A43     		orrs	r2, r2, r1
 1687 0198 9A60     		str	r2, [r3, #8]
 1688 019a 0FE0     		b	.L85
 1689              	.L84:
 891:Drivers/STM32F4xx_HAL_Driver/Src/stm32f4xx_hal_adc_ex.c ****   }
 892:Drivers/STM32F4xx_HAL_Driver/Src/stm32f4xx_hal_adc_ex.c ****   else
 893:Drivers/STM32F4xx_HAL_Driver/Src/stm32f4xx_hal_adc_ex.c ****   {
 894:Drivers/STM32F4xx_HAL_Driver/Src/stm32f4xx_hal_adc_ex.c ****     /* Reset the external trigger */
 895:Drivers/STM32F4xx_HAL_Driver/Src/stm32f4xx_hal_adc_ex.c ****     hadc->Instance->CR2 &= ~(ADC_CR2_JEXTSEL);
 1690              		.loc 1 895 0
 1691 019c 7B68     		ldr	r3, [r7, #4]
 1692 019e 1B68     		ldr	r3, [r3]
 1693 01a0 7A68     		ldr	r2, [r7, #4]
 1694 01a2 1268     		ldr	r2, [r2]
 1695 01a4 9268     		ldr	r2, [r2, #8]
 1696 01a6 22F47022 		bic	r2, r2, #983040
 1697 01aa 9A60     		str	r2, [r3, #8]
 896:Drivers/STM32F4xx_HAL_Driver/Src/stm32f4xx_hal_adc_ex.c ****     hadc->Instance->CR2 &= ~(ADC_CR2_JEXTEN);  
 1698              		.loc 1 896 0
 1699 01ac 7B68     		ldr	r3, [r7, #4]
 1700 01ae 1B68     		ldr	r3, [r3]
 1701 01b0 7A68     		ldr	r2, [r7, #4]
 1702 01b2 1268     		ldr	r2, [r2]
 1703 01b4 9268     		ldr	r2, [r2, #8]
 1704 01b6 22F44012 		bic	r2, r2, #3145728
 1705 01ba 9A60     		str	r2, [r3, #8]
 1706              	.L85:
 897:Drivers/STM32F4xx_HAL_Driver/Src/stm32f4xx_hal_adc_ex.c ****   }
 898:Drivers/STM32F4xx_HAL_Driver/Src/stm32f4xx_hal_adc_ex.c ****   
 899:Drivers/STM32F4xx_HAL_Driver/Src/stm32f4xx_hal_adc_ex.c ****   if (sConfigInjected->AutoInjectedConv != DISABLE)
 1707              		.loc 1 899 0
 1708 01bc 3B68     		ldr	r3, [r7]
 1709 01be 9B69     		ldr	r3, [r3, #24]
 1710 01c0 002B     		cmp	r3, #0
 1711 01c2 08D0     		beq	.L86
 900:Drivers/STM32F4xx_HAL_Driver/Src/stm32f4xx_hal_adc_ex.c ****   {
 901:Drivers/STM32F4xx_HAL_Driver/Src/stm32f4xx_hal_adc_ex.c ****     /* Enable the selected ADC automatic injected group conversion */
 902:Drivers/STM32F4xx_HAL_Driver/Src/stm32f4xx_hal_adc_ex.c ****     hadc->Instance->CR1 |= ADC_CR1_JAUTO;
 1712              		.loc 1 902 0
 1713 01c4 7B68     		ldr	r3, [r7, #4]
 1714 01c6 1B68     		ldr	r3, [r3]
 1715 01c8 7A68     		ldr	r2, [r7, #4]
 1716 01ca 1268     		ldr	r2, [r2]
 1717 01cc 5268     		ldr	r2, [r2, #4]
 1718 01ce 42F48062 		orr	r2, r2, #1024
 1719 01d2 5A60     		str	r2, [r3, #4]
 1720 01d4 07E0     		b	.L87
 1721              	.L86:
 903:Drivers/STM32F4xx_HAL_Driver/Src/stm32f4xx_hal_adc_ex.c ****   }
 904:Drivers/STM32F4xx_HAL_Driver/Src/stm32f4xx_hal_adc_ex.c ****   else
 905:Drivers/STM32F4xx_HAL_Driver/Src/stm32f4xx_hal_adc_ex.c ****   {
 906:Drivers/STM32F4xx_HAL_Driver/Src/stm32f4xx_hal_adc_ex.c ****     /* Disable the selected ADC automatic injected group conversion */
 907:Drivers/STM32F4xx_HAL_Driver/Src/stm32f4xx_hal_adc_ex.c ****     hadc->Instance->CR1 &= ~(ADC_CR1_JAUTO);
 1722              		.loc 1 907 0
 1723 01d6 7B68     		ldr	r3, [r7, #4]
ARM GAS  /var/folders/ck/4xtm3skj1ssb0w4rn7_4q_gw0000gn/T//ccdOVP6q.s 			page 47


 1724 01d8 1B68     		ldr	r3, [r3]
 1725 01da 7A68     		ldr	r2, [r7, #4]
 1726 01dc 1268     		ldr	r2, [r2]
 1727 01de 5268     		ldr	r2, [r2, #4]
 1728 01e0 22F48062 		bic	r2, r2, #1024
 1729 01e4 5A60     		str	r2, [r3, #4]
 1730              	.L87:
 908:Drivers/STM32F4xx_HAL_Driver/Src/stm32f4xx_hal_adc_ex.c ****   }
 909:Drivers/STM32F4xx_HAL_Driver/Src/stm32f4xx_hal_adc_ex.c ****   
 910:Drivers/STM32F4xx_HAL_Driver/Src/stm32f4xx_hal_adc_ex.c ****   if (sConfigInjected->InjectedDiscontinuousConvMode != DISABLE)
 1731              		.loc 1 910 0
 1732 01e6 3B68     		ldr	r3, [r7]
 1733 01e8 5B69     		ldr	r3, [r3, #20]
 1734 01ea 002B     		cmp	r3, #0
 1735 01ec 08D0     		beq	.L88
 911:Drivers/STM32F4xx_HAL_Driver/Src/stm32f4xx_hal_adc_ex.c ****   {
 912:Drivers/STM32F4xx_HAL_Driver/Src/stm32f4xx_hal_adc_ex.c ****     /* Enable the selected ADC injected discontinuous mode */
 913:Drivers/STM32F4xx_HAL_Driver/Src/stm32f4xx_hal_adc_ex.c ****     hadc->Instance->CR1 |= ADC_CR1_JDISCEN;
 1736              		.loc 1 913 0
 1737 01ee 7B68     		ldr	r3, [r7, #4]
 1738 01f0 1B68     		ldr	r3, [r3]
 1739 01f2 7A68     		ldr	r2, [r7, #4]
 1740 01f4 1268     		ldr	r2, [r2]
 1741 01f6 5268     		ldr	r2, [r2, #4]
 1742 01f8 42F48052 		orr	r2, r2, #4096
 1743 01fc 5A60     		str	r2, [r3, #4]
 1744 01fe 07E0     		b	.L89
 1745              	.L88:
 914:Drivers/STM32F4xx_HAL_Driver/Src/stm32f4xx_hal_adc_ex.c ****   }
 915:Drivers/STM32F4xx_HAL_Driver/Src/stm32f4xx_hal_adc_ex.c ****   else
 916:Drivers/STM32F4xx_HAL_Driver/Src/stm32f4xx_hal_adc_ex.c ****   {
 917:Drivers/STM32F4xx_HAL_Driver/Src/stm32f4xx_hal_adc_ex.c ****     /* Disable the selected ADC injected discontinuous mode */
 918:Drivers/STM32F4xx_HAL_Driver/Src/stm32f4xx_hal_adc_ex.c ****     hadc->Instance->CR1 &= ~(ADC_CR1_JDISCEN);
 1746              		.loc 1 918 0
 1747 0200 7B68     		ldr	r3, [r7, #4]
 1748 0202 1B68     		ldr	r3, [r3]
 1749 0204 7A68     		ldr	r2, [r7, #4]
 1750 0206 1268     		ldr	r2, [r2]
 1751 0208 5268     		ldr	r2, [r2, #4]
 1752 020a 22F48052 		bic	r2, r2, #4096
 1753 020e 5A60     		str	r2, [r3, #4]
 1754              	.L89:
 919:Drivers/STM32F4xx_HAL_Driver/Src/stm32f4xx_hal_adc_ex.c ****   }
 920:Drivers/STM32F4xx_HAL_Driver/Src/stm32f4xx_hal_adc_ex.c ****   
 921:Drivers/STM32F4xx_HAL_Driver/Src/stm32f4xx_hal_adc_ex.c ****   switch(sConfigInjected->InjectedRank)
 1755              		.loc 1 921 0
 1756 0210 3B68     		ldr	r3, [r7]
 1757 0212 5B68     		ldr	r3, [r3, #4]
 1758 0214 022B     		cmp	r3, #2
 1759 0216 17D0     		beq	.L91
 1760 0218 032B     		cmp	r3, #3
 1761 021a 29D0     		beq	.L92
 1762 021c 012B     		cmp	r3, #1
 1763 021e 3BD1     		bne	.L98
 922:Drivers/STM32F4xx_HAL_Driver/Src/stm32f4xx_hal_adc_ex.c ****   {
 923:Drivers/STM32F4xx_HAL_Driver/Src/stm32f4xx_hal_adc_ex.c ****     case 1U:
 924:Drivers/STM32F4xx_HAL_Driver/Src/stm32f4xx_hal_adc_ex.c ****       /* Set injected channel 1 offset */
ARM GAS  /var/folders/ck/4xtm3skj1ssb0w4rn7_4q_gw0000gn/T//ccdOVP6q.s 			page 48


 925:Drivers/STM32F4xx_HAL_Driver/Src/stm32f4xx_hal_adc_ex.c ****       hadc->Instance->JOFR1 &= ~(ADC_JOFR1_JOFFSET1);
 1764              		.loc 1 925 0
 1765 0220 7B68     		ldr	r3, [r7, #4]
 1766 0222 1A68     		ldr	r2, [r3]
 1767 0224 7B68     		ldr	r3, [r7, #4]
 1768 0226 1B68     		ldr	r3, [r3]
 1769 0228 5B69     		ldr	r3, [r3, #20]
 1770 022a 23F47F63 		bic	r3, r3, #4080
 1771 022e 23F00F03 		bic	r3, r3, #15
 1772 0232 5361     		str	r3, [r2, #20]
 926:Drivers/STM32F4xx_HAL_Driver/Src/stm32f4xx_hal_adc_ex.c ****       hadc->Instance->JOFR1 |= sConfigInjected->InjectedOffset;
 1773              		.loc 1 926 0
 1774 0234 7B68     		ldr	r3, [r7, #4]
 1775 0236 1B68     		ldr	r3, [r3]
 1776 0238 7A68     		ldr	r2, [r7, #4]
 1777 023a 1268     		ldr	r2, [r2]
 1778 023c 5169     		ldr	r1, [r2, #20]
 1779 023e 3A68     		ldr	r2, [r7]
 1780 0240 D268     		ldr	r2, [r2, #12]
 1781 0242 0A43     		orrs	r2, r2, r1
 1782 0244 5A61     		str	r2, [r3, #20]
 927:Drivers/STM32F4xx_HAL_Driver/Src/stm32f4xx_hal_adc_ex.c ****       break;
 1783              		.loc 1 927 0
 1784 0246 3BE0     		b	.L94
 1785              	.L91:
 928:Drivers/STM32F4xx_HAL_Driver/Src/stm32f4xx_hal_adc_ex.c ****     case 2U:
 929:Drivers/STM32F4xx_HAL_Driver/Src/stm32f4xx_hal_adc_ex.c ****       /* Set injected channel 2 offset */
 930:Drivers/STM32F4xx_HAL_Driver/Src/stm32f4xx_hal_adc_ex.c ****       hadc->Instance->JOFR2 &= ~(ADC_JOFR2_JOFFSET2);
 1786              		.loc 1 930 0
 1787 0248 7B68     		ldr	r3, [r7, #4]
 1788 024a 1A68     		ldr	r2, [r3]
 1789 024c 7B68     		ldr	r3, [r7, #4]
 1790 024e 1B68     		ldr	r3, [r3]
 1791 0250 9B69     		ldr	r3, [r3, #24]
 1792 0252 23F47F63 		bic	r3, r3, #4080
 1793 0256 23F00F03 		bic	r3, r3, #15
 1794 025a 9361     		str	r3, [r2, #24]
 931:Drivers/STM32F4xx_HAL_Driver/Src/stm32f4xx_hal_adc_ex.c ****       hadc->Instance->JOFR2 |= sConfigInjected->InjectedOffset;
 1795              		.loc 1 931 0
 1796 025c 7B68     		ldr	r3, [r7, #4]
 1797 025e 1B68     		ldr	r3, [r3]
 1798 0260 7A68     		ldr	r2, [r7, #4]
 1799 0262 1268     		ldr	r2, [r2]
 1800 0264 9169     		ldr	r1, [r2, #24]
 1801 0266 3A68     		ldr	r2, [r7]
 1802 0268 D268     		ldr	r2, [r2, #12]
 1803 026a 0A43     		orrs	r2, r2, r1
 1804 026c 9A61     		str	r2, [r3, #24]
 932:Drivers/STM32F4xx_HAL_Driver/Src/stm32f4xx_hal_adc_ex.c ****       break;
 1805              		.loc 1 932 0
 1806 026e 27E0     		b	.L94
 1807              	.L92:
 933:Drivers/STM32F4xx_HAL_Driver/Src/stm32f4xx_hal_adc_ex.c ****     case 3U:
 934:Drivers/STM32F4xx_HAL_Driver/Src/stm32f4xx_hal_adc_ex.c ****       /* Set injected channel 3 offset */
 935:Drivers/STM32F4xx_HAL_Driver/Src/stm32f4xx_hal_adc_ex.c ****       hadc->Instance->JOFR3 &= ~(ADC_JOFR3_JOFFSET3);
 1808              		.loc 1 935 0
 1809 0270 7B68     		ldr	r3, [r7, #4]
ARM GAS  /var/folders/ck/4xtm3skj1ssb0w4rn7_4q_gw0000gn/T//ccdOVP6q.s 			page 49


 1810 0272 1A68     		ldr	r2, [r3]
 1811 0274 7B68     		ldr	r3, [r7, #4]
 1812 0276 1B68     		ldr	r3, [r3]
 1813 0278 DB69     		ldr	r3, [r3, #28]
 1814 027a 23F47F63 		bic	r3, r3, #4080
 1815 027e 23F00F03 		bic	r3, r3, #15
 1816 0282 D361     		str	r3, [r2, #28]
 936:Drivers/STM32F4xx_HAL_Driver/Src/stm32f4xx_hal_adc_ex.c ****       hadc->Instance->JOFR3 |= sConfigInjected->InjectedOffset;
 1817              		.loc 1 936 0
 1818 0284 7B68     		ldr	r3, [r7, #4]
 1819 0286 1B68     		ldr	r3, [r3]
 1820 0288 7A68     		ldr	r2, [r7, #4]
 1821 028a 1268     		ldr	r2, [r2]
 1822 028c D169     		ldr	r1, [r2, #28]
 1823 028e 3A68     		ldr	r2, [r7]
 1824 0290 D268     		ldr	r2, [r2, #12]
 1825 0292 0A43     		orrs	r2, r2, r1
 1826 0294 DA61     		str	r2, [r3, #28]
 937:Drivers/STM32F4xx_HAL_Driver/Src/stm32f4xx_hal_adc_ex.c ****       break;
 1827              		.loc 1 937 0
 1828 0296 13E0     		b	.L94
 1829              	.L98:
 938:Drivers/STM32F4xx_HAL_Driver/Src/stm32f4xx_hal_adc_ex.c ****     default:
 939:Drivers/STM32F4xx_HAL_Driver/Src/stm32f4xx_hal_adc_ex.c ****       /* Set injected channel 4 offset */
 940:Drivers/STM32F4xx_HAL_Driver/Src/stm32f4xx_hal_adc_ex.c ****       hadc->Instance->JOFR4 &= ~(ADC_JOFR4_JOFFSET4);
 1830              		.loc 1 940 0
 1831 0298 7B68     		ldr	r3, [r7, #4]
 1832 029a 1A68     		ldr	r2, [r3]
 1833 029c 7B68     		ldr	r3, [r7, #4]
 1834 029e 1B68     		ldr	r3, [r3]
 1835 02a0 1B6A     		ldr	r3, [r3, #32]
 1836 02a2 23F47F63 		bic	r3, r3, #4080
 1837 02a6 23F00F03 		bic	r3, r3, #15
 1838 02aa 1362     		str	r3, [r2, #32]
 941:Drivers/STM32F4xx_HAL_Driver/Src/stm32f4xx_hal_adc_ex.c ****       hadc->Instance->JOFR4 |= sConfigInjected->InjectedOffset;
 1839              		.loc 1 941 0
 1840 02ac 7B68     		ldr	r3, [r7, #4]
 1841 02ae 1B68     		ldr	r3, [r3]
 1842 02b0 7A68     		ldr	r2, [r7, #4]
 1843 02b2 1268     		ldr	r2, [r2]
 1844 02b4 116A     		ldr	r1, [r2, #32]
 1845 02b6 3A68     		ldr	r2, [r7]
 1846 02b8 D268     		ldr	r2, [r2, #12]
 1847 02ba 0A43     		orrs	r2, r2, r1
 1848 02bc 1A62     		str	r2, [r3, #32]
 942:Drivers/STM32F4xx_HAL_Driver/Src/stm32f4xx_hal_adc_ex.c ****       break;
 1849              		.loc 1 942 0
 1850 02be 00BF     		nop
 1851              	.L94:
 943:Drivers/STM32F4xx_HAL_Driver/Src/stm32f4xx_hal_adc_ex.c ****   }
 944:Drivers/STM32F4xx_HAL_Driver/Src/stm32f4xx_hal_adc_ex.c **** 
 945:Drivers/STM32F4xx_HAL_Driver/Src/stm32f4xx_hal_adc_ex.c ****   /* Pointer to the common control register to which is belonging hadc    */
 946:Drivers/STM32F4xx_HAL_Driver/Src/stm32f4xx_hal_adc_ex.c ****   /* (Depending on STM32F4 product, there may be up to 3 ADC and 1 common */
 947:Drivers/STM32F4xx_HAL_Driver/Src/stm32f4xx_hal_adc_ex.c ****   /* control register)                                                    */
 948:Drivers/STM32F4xx_HAL_Driver/Src/stm32f4xx_hal_adc_ex.c ****     tmpADC_Common = ADC_COMMON_REGISTER(hadc);
 1852              		.loc 1 948 0
 1853 02c0 174B     		ldr	r3, .L99+4
ARM GAS  /var/folders/ck/4xtm3skj1ssb0w4rn7_4q_gw0000gn/T//ccdOVP6q.s 			page 50


 1854 02c2 FB60     		str	r3, [r7, #12]
 949:Drivers/STM32F4xx_HAL_Driver/Src/stm32f4xx_hal_adc_ex.c **** 
 950:Drivers/STM32F4xx_HAL_Driver/Src/stm32f4xx_hal_adc_ex.c ****   /* if ADC1 Channel_18 is selected enable VBAT Channel */
 951:Drivers/STM32F4xx_HAL_Driver/Src/stm32f4xx_hal_adc_ex.c ****   if ((hadc->Instance == ADC1) && (sConfigInjected->InjectedChannel == ADC_CHANNEL_VBAT))
 1855              		.loc 1 951 0
 1856 02c4 7B68     		ldr	r3, [r7, #4]
 1857 02c6 1B68     		ldr	r3, [r3]
 1858 02c8 164A     		ldr	r2, .L99+8
 1859 02ca 9342     		cmp	r3, r2
 1860 02cc 09D1     		bne	.L95
 1861              		.loc 1 951 0 is_stmt 0 discriminator 1
 1862 02ce 3B68     		ldr	r3, [r7]
 1863 02d0 1B68     		ldr	r3, [r3]
 1864 02d2 122B     		cmp	r3, #18
 1865 02d4 05D1     		bne	.L95
 952:Drivers/STM32F4xx_HAL_Driver/Src/stm32f4xx_hal_adc_ex.c ****   {
 953:Drivers/STM32F4xx_HAL_Driver/Src/stm32f4xx_hal_adc_ex.c ****     /* Enable the VBAT channel*/
 954:Drivers/STM32F4xx_HAL_Driver/Src/stm32f4xx_hal_adc_ex.c ****     tmpADC_Common->CCR |= ADC_CCR_VBATE;
 1866              		.loc 1 954 0 is_stmt 1
 1867 02d6 FB68     		ldr	r3, [r7, #12]
 1868 02d8 5B68     		ldr	r3, [r3, #4]
 1869 02da 43F48002 		orr	r2, r3, #4194304
 1870 02de FB68     		ldr	r3, [r7, #12]
 1871 02e0 5A60     		str	r2, [r3, #4]
 1872              	.L95:
 955:Drivers/STM32F4xx_HAL_Driver/Src/stm32f4xx_hal_adc_ex.c ****   }
 956:Drivers/STM32F4xx_HAL_Driver/Src/stm32f4xx_hal_adc_ex.c ****   
 957:Drivers/STM32F4xx_HAL_Driver/Src/stm32f4xx_hal_adc_ex.c ****   /* if ADC1 Channel_16 or Channel_17 is selected enable TSVREFE Channel(Temperature sensor and VRE
 958:Drivers/STM32F4xx_HAL_Driver/Src/stm32f4xx_hal_adc_ex.c ****   if ((hadc->Instance == ADC1) && ((sConfigInjected->InjectedChannel == ADC_CHANNEL_TEMPSENSOR) || 
 1873              		.loc 1 958 0
 1874 02e2 7B68     		ldr	r3, [r7, #4]
 1875 02e4 1B68     		ldr	r3, [r3]
 1876 02e6 0F4A     		ldr	r2, .L99+8
 1877 02e8 9342     		cmp	r3, r2
 1878 02ea 0DD1     		bne	.L96
 1879              		.loc 1 958 0 is_stmt 0 discriminator 1
 1880 02ec 3B68     		ldr	r3, [r7]
 1881 02ee 1B68     		ldr	r3, [r3]
 1882 02f0 102B     		cmp	r3, #16
 1883 02f2 03D0     		beq	.L97
 1884              		.loc 1 958 0 discriminator 2
 1885 02f4 3B68     		ldr	r3, [r7]
 1886 02f6 1B68     		ldr	r3, [r3]
 1887 02f8 112B     		cmp	r3, #17
 1888 02fa 05D1     		bne	.L96
 1889              	.L97:
 959:Drivers/STM32F4xx_HAL_Driver/Src/stm32f4xx_hal_adc_ex.c ****   {
 960:Drivers/STM32F4xx_HAL_Driver/Src/stm32f4xx_hal_adc_ex.c ****     /* Enable the TSVREFE channel*/
 961:Drivers/STM32F4xx_HAL_Driver/Src/stm32f4xx_hal_adc_ex.c ****     tmpADC_Common->CCR |= ADC_CCR_TSVREFE;
 1890              		.loc 1 961 0 is_stmt 1
 1891 02fc FB68     		ldr	r3, [r7, #12]
 1892 02fe 5B68     		ldr	r3, [r3, #4]
 1893 0300 43F40002 		orr	r2, r3, #8388608
 1894 0304 FB68     		ldr	r3, [r7, #12]
 1895 0306 5A60     		str	r2, [r3, #4]
 1896              	.L96:
 962:Drivers/STM32F4xx_HAL_Driver/Src/stm32f4xx_hal_adc_ex.c ****   }
ARM GAS  /var/folders/ck/4xtm3skj1ssb0w4rn7_4q_gw0000gn/T//ccdOVP6q.s 			page 51


 963:Drivers/STM32F4xx_HAL_Driver/Src/stm32f4xx_hal_adc_ex.c ****   
 964:Drivers/STM32F4xx_HAL_Driver/Src/stm32f4xx_hal_adc_ex.c ****   /* Process unlocked */
 965:Drivers/STM32F4xx_HAL_Driver/Src/stm32f4xx_hal_adc_ex.c ****   __HAL_UNLOCK(hadc);
 1897              		.loc 1 965 0
 1898 0308 7B68     		ldr	r3, [r7, #4]
 1899 030a 0022     		movs	r2, #0
 1900 030c 83F83C20 		strb	r2, [r3, #60]
 966:Drivers/STM32F4xx_HAL_Driver/Src/stm32f4xx_hal_adc_ex.c ****   
 967:Drivers/STM32F4xx_HAL_Driver/Src/stm32f4xx_hal_adc_ex.c ****   /* Return function status */
 968:Drivers/STM32F4xx_HAL_Driver/Src/stm32f4xx_hal_adc_ex.c ****   return HAL_OK;
 1901              		.loc 1 968 0
 1902 0310 0023     		movs	r3, #0
 1903              	.L81:
 969:Drivers/STM32F4xx_HAL_Driver/Src/stm32f4xx_hal_adc_ex.c **** }
 1904              		.loc 1 969 0
 1905 0312 1846     		mov	r0, r3
 1906 0314 1037     		adds	r7, r7, #16
 1907              	.LCFI60:
 1908              		.cfi_def_cfa_offset 8
 1909 0316 BD46     		mov	sp, r7
 1910              	.LCFI61:
 1911              		.cfi_def_cfa_register 13
 1912              		@ sp needed
 1913 0318 90BC     		pop	{r4, r7}
 1914              	.LCFI62:
 1915              		.cfi_restore 7
 1916              		.cfi_restore 4
 1917              		.cfi_def_cfa_offset 0
 1918 031a 7047     		bx	lr
 1919              	.L100:
 1920              		.align	2
 1921              	.L99:
 1922 031c 01000F00 		.word	983041
 1923 0320 00230140 		.word	1073816320
 1924 0324 00200140 		.word	1073815552
 1925              		.cfi_endproc
 1926              	.LFE133:
 1928              		.section	.text.HAL_ADCEx_MultiModeConfigChannel,"ax",%progbits
 1929              		.align	2
 1930              		.global	HAL_ADCEx_MultiModeConfigChannel
 1931              		.thumb
 1932              		.thumb_func
 1934              	HAL_ADCEx_MultiModeConfigChannel:
 1935              	.LFB134:
 970:Drivers/STM32F4xx_HAL_Driver/Src/stm32f4xx_hal_adc_ex.c **** 
 971:Drivers/STM32F4xx_HAL_Driver/Src/stm32f4xx_hal_adc_ex.c **** /**
 972:Drivers/STM32F4xx_HAL_Driver/Src/stm32f4xx_hal_adc_ex.c ****   * @brief  Configures the ADC multi-mode 
 973:Drivers/STM32F4xx_HAL_Driver/Src/stm32f4xx_hal_adc_ex.c ****   * @param  hadc       pointer to a ADC_HandleTypeDef structure that contains
 974:Drivers/STM32F4xx_HAL_Driver/Src/stm32f4xx_hal_adc_ex.c ****   *                     the configuration information for the specified ADC.  
 975:Drivers/STM32F4xx_HAL_Driver/Src/stm32f4xx_hal_adc_ex.c ****   * @param  multimode  pointer to an ADC_MultiModeTypeDef structure that contains 
 976:Drivers/STM32F4xx_HAL_Driver/Src/stm32f4xx_hal_adc_ex.c ****   *                     the configuration information for  multimode.
 977:Drivers/STM32F4xx_HAL_Driver/Src/stm32f4xx_hal_adc_ex.c ****   * @retval HAL status
 978:Drivers/STM32F4xx_HAL_Driver/Src/stm32f4xx_hal_adc_ex.c ****   */
 979:Drivers/STM32F4xx_HAL_Driver/Src/stm32f4xx_hal_adc_ex.c **** HAL_StatusTypeDef HAL_ADCEx_MultiModeConfigChannel(ADC_HandleTypeDef* hadc, ADC_MultiModeTypeDef* m
 980:Drivers/STM32F4xx_HAL_Driver/Src/stm32f4xx_hal_adc_ex.c **** {
 1936              		.loc 1 980 0
 1937              		.cfi_startproc
ARM GAS  /var/folders/ck/4xtm3skj1ssb0w4rn7_4q_gw0000gn/T//ccdOVP6q.s 			page 52


 1938              		@ args = 0, pretend = 0, frame = 16
 1939              		@ frame_needed = 1, uses_anonymous_args = 0
 1940              		@ link register save eliminated.
 1941 0000 80B4     		push	{r7}
 1942              	.LCFI63:
 1943              		.cfi_def_cfa_offset 4
 1944              		.cfi_offset 7, -4
 1945 0002 85B0     		sub	sp, sp, #20
 1946              	.LCFI64:
 1947              		.cfi_def_cfa_offset 24
 1948 0004 00AF     		add	r7, sp, #0
 1949              	.LCFI65:
 1950              		.cfi_def_cfa_register 7
 1951 0006 7860     		str	r0, [r7, #4]
 1952 0008 3960     		str	r1, [r7]
 981:Drivers/STM32F4xx_HAL_Driver/Src/stm32f4xx_hal_adc_ex.c **** 
 982:Drivers/STM32F4xx_HAL_Driver/Src/stm32f4xx_hal_adc_ex.c ****   ADC_Common_TypeDef *tmpADC_Common;
 983:Drivers/STM32F4xx_HAL_Driver/Src/stm32f4xx_hal_adc_ex.c **** 
 984:Drivers/STM32F4xx_HAL_Driver/Src/stm32f4xx_hal_adc_ex.c ****   /* Check the parameters */
 985:Drivers/STM32F4xx_HAL_Driver/Src/stm32f4xx_hal_adc_ex.c ****   assert_param(IS_ADC_MODE(multimode->Mode));
 986:Drivers/STM32F4xx_HAL_Driver/Src/stm32f4xx_hal_adc_ex.c ****   assert_param(IS_ADC_DMA_ACCESS_MODE(multimode->DMAAccessMode));
 987:Drivers/STM32F4xx_HAL_Driver/Src/stm32f4xx_hal_adc_ex.c ****   assert_param(IS_ADC_SAMPLING_DELAY(multimode->TwoSamplingDelay));
 988:Drivers/STM32F4xx_HAL_Driver/Src/stm32f4xx_hal_adc_ex.c ****   
 989:Drivers/STM32F4xx_HAL_Driver/Src/stm32f4xx_hal_adc_ex.c ****   /* Process locked */
 990:Drivers/STM32F4xx_HAL_Driver/Src/stm32f4xx_hal_adc_ex.c ****   __HAL_LOCK(hadc);
 1953              		.loc 1 990 0
 1954 000a 7B68     		ldr	r3, [r7, #4]
 1955 000c 93F83C30 		ldrb	r3, [r3, #60]	@ zero_extendqisi2
 1956 0010 012B     		cmp	r3, #1
 1957 0012 01D1     		bne	.L102
 1958              		.loc 1 990 0 is_stmt 0 discriminator 1
 1959 0014 0223     		movs	r3, #2
 1960 0016 31E0     		b	.L103
 1961              	.L102:
 1962              		.loc 1 990 0 discriminator 2
 1963 0018 7B68     		ldr	r3, [r7, #4]
 1964 001a 0122     		movs	r2, #1
 1965 001c 83F83C20 		strb	r2, [r3, #60]
 991:Drivers/STM32F4xx_HAL_Driver/Src/stm32f4xx_hal_adc_ex.c **** 
 992:Drivers/STM32F4xx_HAL_Driver/Src/stm32f4xx_hal_adc_ex.c ****   /* Pointer to the common control register to which is belonging hadc    */
 993:Drivers/STM32F4xx_HAL_Driver/Src/stm32f4xx_hal_adc_ex.c ****   /* (Depending on STM32F4 product, there may be up to 3 ADC and 1 common */
 994:Drivers/STM32F4xx_HAL_Driver/Src/stm32f4xx_hal_adc_ex.c ****   /* control register)                                                    */
 995:Drivers/STM32F4xx_HAL_Driver/Src/stm32f4xx_hal_adc_ex.c ****   tmpADC_Common = ADC_COMMON_REGISTER(hadc);
 1966              		.loc 1 995 0 is_stmt 1 discriminator 2
 1967 0020 194B     		ldr	r3, .L104
 1968 0022 FB60     		str	r3, [r7, #12]
 996:Drivers/STM32F4xx_HAL_Driver/Src/stm32f4xx_hal_adc_ex.c **** 
 997:Drivers/STM32F4xx_HAL_Driver/Src/stm32f4xx_hal_adc_ex.c ****   /* Set ADC mode */
 998:Drivers/STM32F4xx_HAL_Driver/Src/stm32f4xx_hal_adc_ex.c ****   tmpADC_Common->CCR &= ~(ADC_CCR_MULTI);
 1969              		.loc 1 998 0 discriminator 2
 1970 0024 FB68     		ldr	r3, [r7, #12]
 1971 0026 5B68     		ldr	r3, [r3, #4]
 1972 0028 23F01F02 		bic	r2, r3, #31
 1973 002c FB68     		ldr	r3, [r7, #12]
 1974 002e 5A60     		str	r2, [r3, #4]
 999:Drivers/STM32F4xx_HAL_Driver/Src/stm32f4xx_hal_adc_ex.c ****   tmpADC_Common->CCR |= multimode->Mode;
 1975              		.loc 1 999 0 discriminator 2
ARM GAS  /var/folders/ck/4xtm3skj1ssb0w4rn7_4q_gw0000gn/T//ccdOVP6q.s 			page 53


 1976 0030 FB68     		ldr	r3, [r7, #12]
 1977 0032 5A68     		ldr	r2, [r3, #4]
 1978 0034 3B68     		ldr	r3, [r7]
 1979 0036 1B68     		ldr	r3, [r3]
 1980 0038 1A43     		orrs	r2, r2, r3
 1981 003a FB68     		ldr	r3, [r7, #12]
 1982 003c 5A60     		str	r2, [r3, #4]
1000:Drivers/STM32F4xx_HAL_Driver/Src/stm32f4xx_hal_adc_ex.c ****   
1001:Drivers/STM32F4xx_HAL_Driver/Src/stm32f4xx_hal_adc_ex.c ****   /* Set the ADC DMA access mode */
1002:Drivers/STM32F4xx_HAL_Driver/Src/stm32f4xx_hal_adc_ex.c ****   tmpADC_Common->CCR &= ~(ADC_CCR_DMA);
 1983              		.loc 1 1002 0 discriminator 2
 1984 003e FB68     		ldr	r3, [r7, #12]
 1985 0040 5B68     		ldr	r3, [r3, #4]
 1986 0042 23F44042 		bic	r2, r3, #49152
 1987 0046 FB68     		ldr	r3, [r7, #12]
 1988 0048 5A60     		str	r2, [r3, #4]
1003:Drivers/STM32F4xx_HAL_Driver/Src/stm32f4xx_hal_adc_ex.c ****   tmpADC_Common->CCR |= multimode->DMAAccessMode;
 1989              		.loc 1 1003 0 discriminator 2
 1990 004a FB68     		ldr	r3, [r7, #12]
 1991 004c 5A68     		ldr	r2, [r3, #4]
 1992 004e 3B68     		ldr	r3, [r7]
 1993 0050 5B68     		ldr	r3, [r3, #4]
 1994 0052 1A43     		orrs	r2, r2, r3
 1995 0054 FB68     		ldr	r3, [r7, #12]
 1996 0056 5A60     		str	r2, [r3, #4]
1004:Drivers/STM32F4xx_HAL_Driver/Src/stm32f4xx_hal_adc_ex.c ****   
1005:Drivers/STM32F4xx_HAL_Driver/Src/stm32f4xx_hal_adc_ex.c ****   /* Set delay between two sampling phases */
1006:Drivers/STM32F4xx_HAL_Driver/Src/stm32f4xx_hal_adc_ex.c ****   tmpADC_Common->CCR &= ~(ADC_CCR_DELAY);
 1997              		.loc 1 1006 0 discriminator 2
 1998 0058 FB68     		ldr	r3, [r7, #12]
 1999 005a 5B68     		ldr	r3, [r3, #4]
 2000 005c 23F47062 		bic	r2, r3, #3840
 2001 0060 FB68     		ldr	r3, [r7, #12]
 2002 0062 5A60     		str	r2, [r3, #4]
1007:Drivers/STM32F4xx_HAL_Driver/Src/stm32f4xx_hal_adc_ex.c ****   tmpADC_Common->CCR |= multimode->TwoSamplingDelay;
 2003              		.loc 1 1007 0 discriminator 2
 2004 0064 FB68     		ldr	r3, [r7, #12]
 2005 0066 5A68     		ldr	r2, [r3, #4]
 2006 0068 3B68     		ldr	r3, [r7]
 2007 006a 9B68     		ldr	r3, [r3, #8]
 2008 006c 1A43     		orrs	r2, r2, r3
 2009 006e FB68     		ldr	r3, [r7, #12]
 2010 0070 5A60     		str	r2, [r3, #4]
1008:Drivers/STM32F4xx_HAL_Driver/Src/stm32f4xx_hal_adc_ex.c ****   
1009:Drivers/STM32F4xx_HAL_Driver/Src/stm32f4xx_hal_adc_ex.c ****   /* Process unlocked */
1010:Drivers/STM32F4xx_HAL_Driver/Src/stm32f4xx_hal_adc_ex.c ****   __HAL_UNLOCK(hadc);
 2011              		.loc 1 1010 0 discriminator 2
 2012 0072 7B68     		ldr	r3, [r7, #4]
 2013 0074 0022     		movs	r2, #0
 2014 0076 83F83C20 		strb	r2, [r3, #60]
1011:Drivers/STM32F4xx_HAL_Driver/Src/stm32f4xx_hal_adc_ex.c ****   
1012:Drivers/STM32F4xx_HAL_Driver/Src/stm32f4xx_hal_adc_ex.c ****   /* Return function status */
1013:Drivers/STM32F4xx_HAL_Driver/Src/stm32f4xx_hal_adc_ex.c ****   return HAL_OK;
 2015              		.loc 1 1013 0 discriminator 2
 2016 007a 0023     		movs	r3, #0
 2017              	.L103:
1014:Drivers/STM32F4xx_HAL_Driver/Src/stm32f4xx_hal_adc_ex.c **** }
ARM GAS  /var/folders/ck/4xtm3skj1ssb0w4rn7_4q_gw0000gn/T//ccdOVP6q.s 			page 54


 2018              		.loc 1 1014 0
 2019 007c 1846     		mov	r0, r3
 2020 007e 1437     		adds	r7, r7, #20
 2021              	.LCFI66:
 2022              		.cfi_def_cfa_offset 4
 2023 0080 BD46     		mov	sp, r7
 2024              	.LCFI67:
 2025              		.cfi_def_cfa_register 13
 2026              		@ sp needed
 2027 0082 5DF8047B 		ldr	r7, [sp], #4
 2028              	.LCFI68:
 2029              		.cfi_restore 7
 2030              		.cfi_def_cfa_offset 0
 2031 0086 7047     		bx	lr
 2032              	.L105:
 2033              		.align	2
 2034              	.L104:
 2035 0088 00230140 		.word	1073816320
 2036              		.cfi_endproc
 2037              	.LFE134:
 2039              		.section	.text.ADC_MultiModeDMAConvCplt,"ax",%progbits
 2040              		.align	2
 2041              		.thumb
 2042              		.thumb_func
 2044              	ADC_MultiModeDMAConvCplt:
 2045              	.LFB135:
1015:Drivers/STM32F4xx_HAL_Driver/Src/stm32f4xx_hal_adc_ex.c **** 
1016:Drivers/STM32F4xx_HAL_Driver/Src/stm32f4xx_hal_adc_ex.c **** /**
1017:Drivers/STM32F4xx_HAL_Driver/Src/stm32f4xx_hal_adc_ex.c ****   * @}
1018:Drivers/STM32F4xx_HAL_Driver/Src/stm32f4xx_hal_adc_ex.c ****   */
1019:Drivers/STM32F4xx_HAL_Driver/Src/stm32f4xx_hal_adc_ex.c **** 
1020:Drivers/STM32F4xx_HAL_Driver/Src/stm32f4xx_hal_adc_ex.c **** /**
1021:Drivers/STM32F4xx_HAL_Driver/Src/stm32f4xx_hal_adc_ex.c ****   * @brief  DMA transfer complete callback. 
1022:Drivers/STM32F4xx_HAL_Driver/Src/stm32f4xx_hal_adc_ex.c ****   * @param  hdma pointer to a DMA_HandleTypeDef structure that contains
1023:Drivers/STM32F4xx_HAL_Driver/Src/stm32f4xx_hal_adc_ex.c ****   *                the configuration information for the specified DMA module.
1024:Drivers/STM32F4xx_HAL_Driver/Src/stm32f4xx_hal_adc_ex.c ****   * @retval None
1025:Drivers/STM32F4xx_HAL_Driver/Src/stm32f4xx_hal_adc_ex.c ****   */
1026:Drivers/STM32F4xx_HAL_Driver/Src/stm32f4xx_hal_adc_ex.c **** static void ADC_MultiModeDMAConvCplt(DMA_HandleTypeDef *hdma)   
1027:Drivers/STM32F4xx_HAL_Driver/Src/stm32f4xx_hal_adc_ex.c **** {
 2046              		.loc 1 1027 0
 2047              		.cfi_startproc
 2048              		@ args = 0, pretend = 0, frame = 16
 2049              		@ frame_needed = 1, uses_anonymous_args = 0
 2050 0000 80B5     		push	{r7, lr}
 2051              	.LCFI69:
 2052              		.cfi_def_cfa_offset 8
 2053              		.cfi_offset 7, -8
 2054              		.cfi_offset 14, -4
 2055 0002 84B0     		sub	sp, sp, #16
 2056              	.LCFI70:
 2057              		.cfi_def_cfa_offset 24
 2058 0004 00AF     		add	r7, sp, #0
 2059              	.LCFI71:
 2060              		.cfi_def_cfa_register 7
 2061 0006 7860     		str	r0, [r7, #4]
1028:Drivers/STM32F4xx_HAL_Driver/Src/stm32f4xx_hal_adc_ex.c ****   /* Retrieve ADC handle corresponding to current DMA handle */
1029:Drivers/STM32F4xx_HAL_Driver/Src/stm32f4xx_hal_adc_ex.c ****   ADC_HandleTypeDef* hadc = ( ADC_HandleTypeDef* )((DMA_HandleTypeDef* )hdma)->Parent;
ARM GAS  /var/folders/ck/4xtm3skj1ssb0w4rn7_4q_gw0000gn/T//ccdOVP6q.s 			page 55


 2062              		.loc 1 1029 0
 2063 0008 7B68     		ldr	r3, [r7, #4]
 2064 000a 9B6B     		ldr	r3, [r3, #56]
 2065 000c FB60     		str	r3, [r7, #12]
1030:Drivers/STM32F4xx_HAL_Driver/Src/stm32f4xx_hal_adc_ex.c ****   
1031:Drivers/STM32F4xx_HAL_Driver/Src/stm32f4xx_hal_adc_ex.c ****   /* Update state machine on conversion status if not in error state */
1032:Drivers/STM32F4xx_HAL_Driver/Src/stm32f4xx_hal_adc_ex.c ****   if (HAL_IS_BIT_CLR(hadc->State, HAL_ADC_STATE_ERROR_INTERNAL | HAL_ADC_STATE_ERROR_DMA))
 2066              		.loc 1 1032 0
 2067 000e FB68     		ldr	r3, [r7, #12]
 2068 0010 1B6C     		ldr	r3, [r3, #64]
 2069 0012 03F05003 		and	r3, r3, #80
 2070 0016 002B     		cmp	r3, #0
 2071 0018 3CD1     		bne	.L107
1033:Drivers/STM32F4xx_HAL_Driver/Src/stm32f4xx_hal_adc_ex.c ****   {
1034:Drivers/STM32F4xx_HAL_Driver/Src/stm32f4xx_hal_adc_ex.c ****     /* Update ADC state machine */
1035:Drivers/STM32F4xx_HAL_Driver/Src/stm32f4xx_hal_adc_ex.c ****     SET_BIT(hadc->State, HAL_ADC_STATE_REG_EOC);
 2072              		.loc 1 1035 0
 2073 001a FB68     		ldr	r3, [r7, #12]
 2074 001c 1B6C     		ldr	r3, [r3, #64]
 2075 001e 43F40072 		orr	r2, r3, #512
 2076 0022 FB68     		ldr	r3, [r7, #12]
 2077 0024 1A64     		str	r2, [r3, #64]
1036:Drivers/STM32F4xx_HAL_Driver/Src/stm32f4xx_hal_adc_ex.c ****     
1037:Drivers/STM32F4xx_HAL_Driver/Src/stm32f4xx_hal_adc_ex.c ****     /* Determine whether any further conversion upcoming on group regular   */
1038:Drivers/STM32F4xx_HAL_Driver/Src/stm32f4xx_hal_adc_ex.c ****     /* by external trigger, continuous mode or scan sequence on going.      */
1039:Drivers/STM32F4xx_HAL_Driver/Src/stm32f4xx_hal_adc_ex.c ****     /* Note: On STM32F4, there is no independent flag of end of sequence.   */
1040:Drivers/STM32F4xx_HAL_Driver/Src/stm32f4xx_hal_adc_ex.c ****     /*       The test of scan sequence on going is done either with scan    */
1041:Drivers/STM32F4xx_HAL_Driver/Src/stm32f4xx_hal_adc_ex.c ****     /*       sequence disabled or with end of conversion flag set to        */
1042:Drivers/STM32F4xx_HAL_Driver/Src/stm32f4xx_hal_adc_ex.c ****     /*       of end of sequence.                                            */
1043:Drivers/STM32F4xx_HAL_Driver/Src/stm32f4xx_hal_adc_ex.c ****     if(ADC_IS_SOFTWARE_START_REGULAR(hadc)                   &&
 2078              		.loc 1 1043 0
 2079 0026 FB68     		ldr	r3, [r7, #12]
 2080 0028 1B68     		ldr	r3, [r3]
 2081 002a 9B68     		ldr	r3, [r3, #8]
 2082 002c 03F04053 		and	r3, r3, #805306368
 2083 0030 002B     		cmp	r3, #0
 2084 0032 2BD1     		bne	.L108
1044:Drivers/STM32F4xx_HAL_Driver/Src/stm32f4xx_hal_adc_ex.c ****        (hadc->Init.ContinuousConvMode == DISABLE)            &&
 2085              		.loc 1 1044 0 discriminator 1
 2086 0034 FB68     		ldr	r3, [r7, #12]
 2087 0036 9B69     		ldr	r3, [r3, #24]
1043:Drivers/STM32F4xx_HAL_Driver/Src/stm32f4xx_hal_adc_ex.c ****        (hadc->Init.ContinuousConvMode == DISABLE)            &&
 2088              		.loc 1 1043 0 discriminator 1
 2089 0038 002B     		cmp	r3, #0
 2090 003a 27D1     		bne	.L108
1045:Drivers/STM32F4xx_HAL_Driver/Src/stm32f4xx_hal_adc_ex.c ****        (HAL_IS_BIT_CLR(hadc->Instance->SQR1, ADC_SQR1_L) || 
 2091              		.loc 1 1045 0
 2092 003c FB68     		ldr	r3, [r7, #12]
 2093 003e 1B68     		ldr	r3, [r3]
 2094 0040 DB6A     		ldr	r3, [r3, #44]
 2095 0042 03F47003 		and	r3, r3, #15728640
1044:Drivers/STM32F4xx_HAL_Driver/Src/stm32f4xx_hal_adc_ex.c ****        (hadc->Init.ContinuousConvMode == DISABLE)            &&
 2096              		.loc 1 1044 0
 2097 0046 002B     		cmp	r3, #0
 2098 0048 06D0     		beq	.L109
1046:Drivers/STM32F4xx_HAL_Driver/Src/stm32f4xx_hal_adc_ex.c ****         HAL_IS_BIT_CLR(hadc->Instance->CR2, ADC_CR2_EOCS)  )   )
 2099              		.loc 1 1046 0
ARM GAS  /var/folders/ck/4xtm3skj1ssb0w4rn7_4q_gw0000gn/T//ccdOVP6q.s 			page 56


 2100 004a FB68     		ldr	r3, [r7, #12]
 2101 004c 1B68     		ldr	r3, [r3]
 2102 004e 9B68     		ldr	r3, [r3, #8]
 2103 0050 03F48063 		and	r3, r3, #1024
1045:Drivers/STM32F4xx_HAL_Driver/Src/stm32f4xx_hal_adc_ex.c ****        (HAL_IS_BIT_CLR(hadc->Instance->SQR1, ADC_SQR1_L) || 
 2104              		.loc 1 1045 0
 2105 0054 002B     		cmp	r3, #0
 2106 0056 19D1     		bne	.L108
 2107              	.L109:
1047:Drivers/STM32F4xx_HAL_Driver/Src/stm32f4xx_hal_adc_ex.c ****     {
1048:Drivers/STM32F4xx_HAL_Driver/Src/stm32f4xx_hal_adc_ex.c ****       /* Disable ADC end of single conversion interrupt on group regular */
1049:Drivers/STM32F4xx_HAL_Driver/Src/stm32f4xx_hal_adc_ex.c ****       /* Note: Overrun interrupt was enabled with EOC interrupt in          */
1050:Drivers/STM32F4xx_HAL_Driver/Src/stm32f4xx_hal_adc_ex.c ****       /* HAL_ADC_Start_IT(), but is not disabled here because can be used   */
1051:Drivers/STM32F4xx_HAL_Driver/Src/stm32f4xx_hal_adc_ex.c ****       /* by overrun IRQ process below.                                      */
1052:Drivers/STM32F4xx_HAL_Driver/Src/stm32f4xx_hal_adc_ex.c ****       __HAL_ADC_DISABLE_IT(hadc, ADC_IT_EOC);
 2108              		.loc 1 1052 0
 2109 0058 FB68     		ldr	r3, [r7, #12]
 2110 005a 1B68     		ldr	r3, [r3]
 2111 005c FA68     		ldr	r2, [r7, #12]
 2112 005e 1268     		ldr	r2, [r2]
 2113 0060 5268     		ldr	r2, [r2, #4]
 2114 0062 22F02002 		bic	r2, r2, #32
 2115 0066 5A60     		str	r2, [r3, #4]
1053:Drivers/STM32F4xx_HAL_Driver/Src/stm32f4xx_hal_adc_ex.c ****       
1054:Drivers/STM32F4xx_HAL_Driver/Src/stm32f4xx_hal_adc_ex.c ****       /* Set ADC state */
1055:Drivers/STM32F4xx_HAL_Driver/Src/stm32f4xx_hal_adc_ex.c ****       CLEAR_BIT(hadc->State, HAL_ADC_STATE_REG_BUSY);   
 2116              		.loc 1 1055 0
 2117 0068 FB68     		ldr	r3, [r7, #12]
 2118 006a 1B6C     		ldr	r3, [r3, #64]
 2119 006c 23F48072 		bic	r2, r3, #256
 2120 0070 FB68     		ldr	r3, [r7, #12]
 2121 0072 1A64     		str	r2, [r3, #64]
1056:Drivers/STM32F4xx_HAL_Driver/Src/stm32f4xx_hal_adc_ex.c ****       
1057:Drivers/STM32F4xx_HAL_Driver/Src/stm32f4xx_hal_adc_ex.c ****       if (HAL_IS_BIT_CLR(hadc->State, HAL_ADC_STATE_INJ_BUSY))
 2122              		.loc 1 1057 0
 2123 0074 FB68     		ldr	r3, [r7, #12]
 2124 0076 1B6C     		ldr	r3, [r3, #64]
 2125 0078 03F48053 		and	r3, r3, #4096
 2126 007c 002B     		cmp	r3, #0
 2127 007e 05D1     		bne	.L108
1058:Drivers/STM32F4xx_HAL_Driver/Src/stm32f4xx_hal_adc_ex.c ****       {
1059:Drivers/STM32F4xx_HAL_Driver/Src/stm32f4xx_hal_adc_ex.c ****         SET_BIT(hadc->State, HAL_ADC_STATE_READY);
 2128              		.loc 1 1059 0
 2129 0080 FB68     		ldr	r3, [r7, #12]
 2130 0082 1B6C     		ldr	r3, [r3, #64]
 2131 0084 43F00102 		orr	r2, r3, #1
 2132 0088 FB68     		ldr	r3, [r7, #12]
 2133 008a 1A64     		str	r2, [r3, #64]
 2134              	.L108:
1060:Drivers/STM32F4xx_HAL_Driver/Src/stm32f4xx_hal_adc_ex.c ****       }
1061:Drivers/STM32F4xx_HAL_Driver/Src/stm32f4xx_hal_adc_ex.c ****     }
1062:Drivers/STM32F4xx_HAL_Driver/Src/stm32f4xx_hal_adc_ex.c ****     
1063:Drivers/STM32F4xx_HAL_Driver/Src/stm32f4xx_hal_adc_ex.c ****     /* Conversion complete callback */
1064:Drivers/STM32F4xx_HAL_Driver/Src/stm32f4xx_hal_adc_ex.c ****     HAL_ADC_ConvCpltCallback(hadc);
 2135              		.loc 1 1064 0
 2136 008c F868     		ldr	r0, [r7, #12]
 2137 008e FFF7FEFF 		bl	HAL_ADC_ConvCpltCallback
ARM GAS  /var/folders/ck/4xtm3skj1ssb0w4rn7_4q_gw0000gn/T//ccdOVP6q.s 			page 57


 2138 0092 04E0     		b	.L106
 2139              	.L107:
1065:Drivers/STM32F4xx_HAL_Driver/Src/stm32f4xx_hal_adc_ex.c ****   }
1066:Drivers/STM32F4xx_HAL_Driver/Src/stm32f4xx_hal_adc_ex.c ****   else
1067:Drivers/STM32F4xx_HAL_Driver/Src/stm32f4xx_hal_adc_ex.c ****   {
1068:Drivers/STM32F4xx_HAL_Driver/Src/stm32f4xx_hal_adc_ex.c ****     /* Call DMA error callback */
1069:Drivers/STM32F4xx_HAL_Driver/Src/stm32f4xx_hal_adc_ex.c ****     hadc->DMA_Handle->XferErrorCallback(hdma);
 2140              		.loc 1 1069 0
 2141 0094 FB68     		ldr	r3, [r7, #12]
 2142 0096 9B6B     		ldr	r3, [r3, #56]
 2143 0098 DB6C     		ldr	r3, [r3, #76]
 2144 009a 7868     		ldr	r0, [r7, #4]
 2145 009c 9847     		blx	r3
 2146              	.L106:
1070:Drivers/STM32F4xx_HAL_Driver/Src/stm32f4xx_hal_adc_ex.c ****   }
1071:Drivers/STM32F4xx_HAL_Driver/Src/stm32f4xx_hal_adc_ex.c **** }
 2147              		.loc 1 1071 0
 2148 009e 1037     		adds	r7, r7, #16
 2149              	.LCFI72:
 2150              		.cfi_def_cfa_offset 8
 2151 00a0 BD46     		mov	sp, r7
 2152              	.LCFI73:
 2153              		.cfi_def_cfa_register 13
 2154              		@ sp needed
 2155 00a2 80BD     		pop	{r7, pc}
 2156              		.cfi_endproc
 2157              	.LFE135:
 2159              		.section	.text.ADC_MultiModeDMAHalfConvCplt,"ax",%progbits
 2160              		.align	2
 2161              		.thumb
 2162              		.thumb_func
 2164              	ADC_MultiModeDMAHalfConvCplt:
 2165              	.LFB136:
1072:Drivers/STM32F4xx_HAL_Driver/Src/stm32f4xx_hal_adc_ex.c **** 
1073:Drivers/STM32F4xx_HAL_Driver/Src/stm32f4xx_hal_adc_ex.c **** /**
1074:Drivers/STM32F4xx_HAL_Driver/Src/stm32f4xx_hal_adc_ex.c ****   * @brief  DMA half transfer complete callback. 
1075:Drivers/STM32F4xx_HAL_Driver/Src/stm32f4xx_hal_adc_ex.c ****   * @param  hdma pointer to a DMA_HandleTypeDef structure that contains
1076:Drivers/STM32F4xx_HAL_Driver/Src/stm32f4xx_hal_adc_ex.c ****   *                the configuration information for the specified DMA module.
1077:Drivers/STM32F4xx_HAL_Driver/Src/stm32f4xx_hal_adc_ex.c ****   * @retval None
1078:Drivers/STM32F4xx_HAL_Driver/Src/stm32f4xx_hal_adc_ex.c ****   */
1079:Drivers/STM32F4xx_HAL_Driver/Src/stm32f4xx_hal_adc_ex.c **** static void ADC_MultiModeDMAHalfConvCplt(DMA_HandleTypeDef *hdma)   
1080:Drivers/STM32F4xx_HAL_Driver/Src/stm32f4xx_hal_adc_ex.c **** {
 2166              		.loc 1 1080 0
 2167              		.cfi_startproc
 2168              		@ args = 0, pretend = 0, frame = 16
 2169              		@ frame_needed = 1, uses_anonymous_args = 0
 2170 0000 80B5     		push	{r7, lr}
 2171              	.LCFI74:
 2172              		.cfi_def_cfa_offset 8
 2173              		.cfi_offset 7, -8
 2174              		.cfi_offset 14, -4
 2175 0002 84B0     		sub	sp, sp, #16
 2176              	.LCFI75:
 2177              		.cfi_def_cfa_offset 24
 2178 0004 00AF     		add	r7, sp, #0
 2179              	.LCFI76:
 2180              		.cfi_def_cfa_register 7
ARM GAS  /var/folders/ck/4xtm3skj1ssb0w4rn7_4q_gw0000gn/T//ccdOVP6q.s 			page 58


 2181 0006 7860     		str	r0, [r7, #4]
1081:Drivers/STM32F4xx_HAL_Driver/Src/stm32f4xx_hal_adc_ex.c ****     ADC_HandleTypeDef* hadc = ( ADC_HandleTypeDef* )((DMA_HandleTypeDef* )hdma)->Parent;
 2182              		.loc 1 1081 0
 2183 0008 7B68     		ldr	r3, [r7, #4]
 2184 000a 9B6B     		ldr	r3, [r3, #56]
 2185 000c FB60     		str	r3, [r7, #12]
1082:Drivers/STM32F4xx_HAL_Driver/Src/stm32f4xx_hal_adc_ex.c ****     /* Conversion complete callback */
1083:Drivers/STM32F4xx_HAL_Driver/Src/stm32f4xx_hal_adc_ex.c ****     HAL_ADC_ConvHalfCpltCallback(hadc); 
 2186              		.loc 1 1083 0
 2187 000e F868     		ldr	r0, [r7, #12]
 2188 0010 FFF7FEFF 		bl	HAL_ADC_ConvHalfCpltCallback
1084:Drivers/STM32F4xx_HAL_Driver/Src/stm32f4xx_hal_adc_ex.c **** }
 2189              		.loc 1 1084 0
 2190 0014 1037     		adds	r7, r7, #16
 2191              	.LCFI77:
 2192              		.cfi_def_cfa_offset 8
 2193 0016 BD46     		mov	sp, r7
 2194              	.LCFI78:
 2195              		.cfi_def_cfa_register 13
 2196              		@ sp needed
 2197 0018 80BD     		pop	{r7, pc}
 2198              		.cfi_endproc
 2199              	.LFE136:
 2201 001a 00BF     		.section	.text.ADC_MultiModeDMAError,"ax",%progbits
 2202              		.align	2
 2203              		.thumb
 2204              		.thumb_func
 2206              	ADC_MultiModeDMAError:
 2207              	.LFB137:
1085:Drivers/STM32F4xx_HAL_Driver/Src/stm32f4xx_hal_adc_ex.c **** 
1086:Drivers/STM32F4xx_HAL_Driver/Src/stm32f4xx_hal_adc_ex.c **** /**
1087:Drivers/STM32F4xx_HAL_Driver/Src/stm32f4xx_hal_adc_ex.c ****   * @brief  DMA error callback 
1088:Drivers/STM32F4xx_HAL_Driver/Src/stm32f4xx_hal_adc_ex.c ****   * @param  hdma pointer to a DMA_HandleTypeDef structure that contains
1089:Drivers/STM32F4xx_HAL_Driver/Src/stm32f4xx_hal_adc_ex.c ****   *                the configuration information for the specified DMA module.
1090:Drivers/STM32F4xx_HAL_Driver/Src/stm32f4xx_hal_adc_ex.c ****   * @retval None
1091:Drivers/STM32F4xx_HAL_Driver/Src/stm32f4xx_hal_adc_ex.c ****   */
1092:Drivers/STM32F4xx_HAL_Driver/Src/stm32f4xx_hal_adc_ex.c **** static void ADC_MultiModeDMAError(DMA_HandleTypeDef *hdma)   
1093:Drivers/STM32F4xx_HAL_Driver/Src/stm32f4xx_hal_adc_ex.c **** {
 2208              		.loc 1 1093 0
 2209              		.cfi_startproc
 2210              		@ args = 0, pretend = 0, frame = 16
 2211              		@ frame_needed = 1, uses_anonymous_args = 0
 2212 0000 80B5     		push	{r7, lr}
 2213              	.LCFI79:
 2214              		.cfi_def_cfa_offset 8
 2215              		.cfi_offset 7, -8
 2216              		.cfi_offset 14, -4
 2217 0002 84B0     		sub	sp, sp, #16
 2218              	.LCFI80:
 2219              		.cfi_def_cfa_offset 24
 2220 0004 00AF     		add	r7, sp, #0
 2221              	.LCFI81:
 2222              		.cfi_def_cfa_register 7
 2223 0006 7860     		str	r0, [r7, #4]
1094:Drivers/STM32F4xx_HAL_Driver/Src/stm32f4xx_hal_adc_ex.c ****     ADC_HandleTypeDef* hadc = ( ADC_HandleTypeDef* )((DMA_HandleTypeDef* )hdma)->Parent;
 2224              		.loc 1 1094 0
 2225 0008 7B68     		ldr	r3, [r7, #4]
ARM GAS  /var/folders/ck/4xtm3skj1ssb0w4rn7_4q_gw0000gn/T//ccdOVP6q.s 			page 59


 2226 000a 9B6B     		ldr	r3, [r3, #56]
 2227 000c FB60     		str	r3, [r7, #12]
1095:Drivers/STM32F4xx_HAL_Driver/Src/stm32f4xx_hal_adc_ex.c ****     hadc->State= HAL_ADC_STATE_ERROR_DMA;
 2228              		.loc 1 1095 0
 2229 000e FB68     		ldr	r3, [r7, #12]
 2230 0010 4022     		movs	r2, #64
 2231 0012 1A64     		str	r2, [r3, #64]
1096:Drivers/STM32F4xx_HAL_Driver/Src/stm32f4xx_hal_adc_ex.c ****     /* Set ADC error code to DMA error */
1097:Drivers/STM32F4xx_HAL_Driver/Src/stm32f4xx_hal_adc_ex.c ****     hadc->ErrorCode |= HAL_ADC_ERROR_DMA;
 2232              		.loc 1 1097 0
 2233 0014 FB68     		ldr	r3, [r7, #12]
 2234 0016 5B6C     		ldr	r3, [r3, #68]
 2235 0018 43F00402 		orr	r2, r3, #4
 2236 001c FB68     		ldr	r3, [r7, #12]
 2237 001e 5A64     		str	r2, [r3, #68]
1098:Drivers/STM32F4xx_HAL_Driver/Src/stm32f4xx_hal_adc_ex.c ****     HAL_ADC_ErrorCallback(hadc); 
 2238              		.loc 1 1098 0
 2239 0020 F868     		ldr	r0, [r7, #12]
 2240 0022 FFF7FEFF 		bl	HAL_ADC_ErrorCallback
1099:Drivers/STM32F4xx_HAL_Driver/Src/stm32f4xx_hal_adc_ex.c **** }
 2241              		.loc 1 1099 0
 2242 0026 1037     		adds	r7, r7, #16
 2243              	.LCFI82:
 2244              		.cfi_def_cfa_offset 8
 2245 0028 BD46     		mov	sp, r7
 2246              	.LCFI83:
 2247              		.cfi_def_cfa_register 13
 2248              		@ sp needed
 2249 002a 80BD     		pop	{r7, pc}
 2250              		.cfi_endproc
 2251              	.LFE137:
 2253              		.text
 2254              	.Letext0:
 2255              		.file 2 "/usr/local/Cellar/arm-none-eabi-gcc/20150921/arm-none-eabi/include/machine/_default_types
 2256              		.file 3 "/usr/local/Cellar/arm-none-eabi-gcc/20150921/arm-none-eabi/include/sys/_stdint.h"
 2257              		.file 4 "Drivers/CMSIS/Device/ST/STM32F4xx/Include/stm32f401xe.h"
 2258              		.file 5 "Drivers/CMSIS/Device/ST/STM32F4xx/Include/stm32f4xx.h"
 2259              		.file 6 "Drivers/STM32F4xx_HAL_Driver/Inc/stm32f4xx_hal_def.h"
 2260              		.file 7 "Drivers/STM32F4xx_HAL_Driver/Inc/stm32f4xx_hal_dma.h"
 2261              		.file 8 "Drivers/STM32F4xx_HAL_Driver/Inc/stm32f4xx_hal_adc.h"
 2262              		.file 9 "Drivers/STM32F4xx_HAL_Driver/Inc/stm32f4xx_hal_adc_ex.h"
 2263              		.file 10 "Drivers/CMSIS/Include/core_cm4.h"
 2264              		.file 11 "Drivers/CMSIS/Device/ST/STM32F4xx/Include/system_stm32f4xx.h"
ARM GAS  /var/folders/ck/4xtm3skj1ssb0w4rn7_4q_gw0000gn/T//ccdOVP6q.s 			page 60

